; generated by Component: ARM Compiler 5.06 update 6 (build 750) Tool: ArmCC [4d3637]
; commandline ArmCC [--c99 --split_sections --debug -c --asm --interleave -o"project f405\emulator6502.o" --depend="project f405\emulator6502.d" --cpu=Cortex-M4.fp --apcs=interwork -O3 -Otime --diag_suppress=9931 -I../Core/Inc -I../Drivers/STM32F4xx_HAL_Driver/Inc -I../Drivers/STM32F4xx_HAL_Driver/Inc/Legacy -I../Drivers/CMSIS/Device/ST/STM32F4xx/Include -I../Drivers/CMSIS/Include -I../FATFS/Target -I../FATFS/App -I../Middlewares/Third_Party/FatFs/src -I.\RTE\_Project_F405 -IC:\Keil_v5\ARM\PACK\ARM\CMSIS\5.7.0\CMSIS\Core\Include -IC:\Keil_v5\ARM\PACK\Keil\STM32F4xx_DFP\2.13.0\Drivers\CMSIS\Device\ST\STM32F4xx\Include -D__MICROLIB -D__UVISION_VERSION=526 -D_RTE_ -DSTM32F405xx -DUSE_HAL_DRIVER -DSTM32F405xx --omf_browse="project f405\emulator6502.crf" ..\Core\Src\emulator6502.c]
                          THUMB

                          AREA ||i.emulate6502||, CODE, READONLY, ALIGN=2

                  emulate6502 PROC
;;;533    
;;;534    UINT emulate6502(UINT runto)
000000  e92d4ff0          PUSH     {r4-r11,lr}
;;;535    {
;;;536    	/////////////////////////////////////////
;;;537    	//  If the CPU is jammed... don't bother
;;;538    	if(bCPUJammed == 1)
000004  4d9e              LDR      r5,|L1.640|
000006  4683              MOV      r11,r0                ;535
000008  b083              SUB      sp,sp,#0xc            ;535
00000a  7968              LDRB     r0,[r5,#5]  ; bCPUJammed
00000c  2801              CMP      r0,#1
;;;539    		return 0;
00000e  bf02              ITTT     EQ
000010  2000              MOVEQ    r0,#0
;;;540    
;;;541    	register TWIN	tw;		//used in calculations
;;;542    	register BYTE	ST = regP;
;;;543    	register TWIN	PC;
;;;544    	BYTE			SP = regSP;
;;;545    	register BYTE	A = regA;
;;;546    	register BYTE	X = regX;
;;;547    	register BYTE	Y = regY;
;;;548    	TWIN			front;
;;;549    	TWIN			final;
;;;550    	PC.W = regPC;
;;;551    
;;;552    	UINT ret = nCPUCycle;
;;;553    
;;;554    	////////////////////
;;;555    	//  Start the loop
;;;556    
;;;557    	while(nCPUCycle < runto)
;;;558    	{
;;;559    		op = Rd(PC.W);
;;;560    		PC.W++;
;;;561    
;;;562    		nCPUCycle += CPU_Cycles[op];
;;;563    
;;;564    		//DEBUG_HEX("Op code: ", op);
;;;565    
;;;566    		switch(op)
;;;567    		{
;;;568    			//////////////////////////////////////////////////////////////////////////
;;;569    			//  Documented Opcodes first
;;;570    
;;;571    			//////////////////////////////////////////////////////////////////////////
;;;572    			//  Flag setting/clearing
;;;573    		case 0x18:	ST &= ~C_FLAG;	break;		/* CLC	*/
;;;574    		case 0x38:	ST |=  C_FLAG;	break;		/* SEC	*/
;;;575    		case 0x58:	ST &= ~I_FLAG;	break;		/* CLI	*/
;;;576    		case 0x78:	ST |=  I_FLAG;	break;		/* SEI	*/
;;;577    		case 0xB8:	ST &= ~V_FLAG;	break;		/* CLV	*/
;;;578    		case 0xD8:	ST &= ~D_FLAG;	break;		/* CLD	*/
;;;579    		case 0xF8:	ST |=  D_FLAG;	break;		/* SED	*/
;;;580    
;;;581    			//////////////////////////////////////////////////////////////////////////
;;;582    			//  Branch commands
;;;583    		case 0x10:	RelJmp(!(ST & N_FLAG)); break;							/* BPL	*/
;;;584    		case 0x30:	RelJmp( (ST & N_FLAG)); break;							/* BMI	*/
;;;585    		case 0x50:	RelJmp(!(ST & V_FLAG)); break;							/* BVC	*/
;;;586    		case 0x70:	RelJmp( (ST & V_FLAG)); break;							/* BVS	*/
;;;587    		case 0x90:	RelJmp(!(ST & C_FLAG)); break;							/* BCC	*/
;;;588    		case 0xB0:	RelJmp( (ST & C_FLAG)); break;							/* BCS	*/
;;;589    		case 0xD0:	RelJmp(!(ST & Z_FLAG)); break;							/* BNE	*/
;;;590    		case 0xF0:	RelJmp( (ST & Z_FLAG)); break;							/* BEQ	*/
;;;591    
;;;592    			//////////////////////////////////////////////////////////////////////////
;;;593    			//  Direct stack alteration commands (push/pull commands)
;;;594    
;;;595    		case 0x08:	PUSH(ST | R_FLAG | B_FLAG);						break;	/* PHP	*/
;;;596    		case 0x28:	PULL(ST);										break;	/* PLP	*/
;;;597    		case 0x48:	PUSH(A);										break;	/* PHA	*/
;;;598    		case 0x68:	PULL(A); UpdateNZ(A);							break;	/* PLA	*/
;;;599    
;;;600    			//////////////////////////////////////////////////////////////////////////
;;;601    			//  Register Transfers
;;;602    
;;;603    		case 0x8A:	A = X;	UpdateNZ(A);							break;	/* TXA	*/
;;;604    		case 0x98:	A = Y;	UpdateNZ(A);							break;	/* TYA	*/
;;;605    		case 0x9A:	SP = X;											break;	/* TXS	*/
;;;606    		case 0xA8:	Y = A;	UpdateNZ(A);							break;	/* TAY	*/
;;;607    		case 0xAA:	X = A;	UpdateNZ(A);							break;	/* TAX	*/
;;;608    		case 0xBA:	X = SP;	UpdateNZ(X);							break;	/* TSX	*/
;;;609    
;;;610    
;;;611    			//////////////////////////////////////////////////////////////////////////
;;;612    			//  Other commands
;;;613    
;;;614    			/* ADD	*/
;;;615    		case 0x61:	Ad_VlIx();	ADD();	break;
;;;616    		case 0x65:	Ad_VlZp();	ADD();	break;
;;;617    		case 0x69:	Ad_VlIm();	ADD();	break;
;;;618    		case 0x6D:	Ad_VlAb();	ADD();	break;
;;;619    		case 0x71:	Ad_VlIy();	ADD();	break;
;;;620    		case 0x75:	Ad_VlZx();	ADD();	break;
;;;621    		case 0x79:	Ad_VlAy();	ADD();	break;
;;;622    		case 0x7D:	Ad_VlAx();	ADD();	break;
;;;623    
;;;624    			/* AND	*/
;;;625    		case 0x21:	Ad_VlIx();	AND();	break;
;;;626    		case 0x25:	Ad_VlZp();	AND();	break;
;;;627    		case 0x29:	Ad_VlIm();	AND();	break;
;;;628    		case 0x2D:	Ad_VlAb();	AND();	break;
;;;629    		case 0x31:	Ad_VlIy();	AND();	break;
;;;630    		case 0x35:	Ad_VlZx();	AND();	break;
;;;631    		case 0x39:	Ad_VlAy();	AND();	break;
;;;632    		case 0x3D:	Ad_VlAx();	AND();	break;
;;;633    
;;;634    			/* ASL	*/
;;;635    		case 0x0A:	ASL(A);						break;
;;;636    		case 0x06:	MRW_Zp(ASL);				break;
;;;637    		case 0x0E:	MRW_Ab(ASL);				break;
;;;638    		case 0x16:	MRW_Zx(ASL);				break;
;;;639    		case 0x1E:	MRW_Ax(ASL);				break;
;;;640    
;;;641    			/* BIT	*/
;;;642    		case 0x24:	Ad_VlZp();	BIT();	break;
;;;643    		case 0x2C:	Ad_VlAb();	BIT();	break;
;;;644    
;;;645    			/* BRK	*/
;;;646    		case 0x00:
;;;647    			if(bIgnoreBRK)
;;;648    				break;
;;;649    			PC.W++;							//BRK has a padding byte
;;;650    			PUSH(PC.B.h);					//push high byte of the return address
;;;651    			PUSH(PC.B.l);					//push low byte of return address
;;;652    			PUSH(ST | R_FLAG | B_FLAG);		//push processor status with R|B flags
;;;653    			ST |= I_FLAG;					//mask interrupts
;;;654    			PC.W = RdWord(0xFFFE);			//read the IRQ vector and jump to it
;;;655    
;;;656    			//extra check to make sure we didn't hit an infinite BRK loop
;;;657    			if(!Rd(PC.W))					//next command will be BRK
;;;658    			{
;;;659    				bCPUJammed = 1;				//the CPU will endlessly loop... just just jam it to ease processing power
;;;660    				goto jammed;
;;;661    			}
;;;662    			break;
;;;663    
;;;664    			/* CMP	*/
;;;665    		case 0xC1:	Ad_VlIx();	CMP(A);	break;
;;;666    		case 0xC5:	Ad_VlZp();	CMP(A);	break;
;;;667    		case 0xC9:	Ad_VlIm();	CMP(A); break;
;;;668    		case 0xCD:	Ad_VlAb();	CMP(A);	break;
;;;669    		case 0xD1:	Ad_VlIy();	CMP(A);	break;
;;;670    		case 0xD5:	Ad_VlZx();	CMP(A);	break;
;;;671    		case 0xD9:	Ad_VlAy();	CMP(A);	break;
;;;672    		case 0xDD:	Ad_VlAx();	CMP(A);	break;
;;;673    
;;;674    			/* CPX	*/
;;;675    		case 0xE0:	Ad_VlIm();	CMP(X);	break;
;;;676    		case 0xE4:	Ad_VlZp();	CMP(X);	break;
;;;677    		case 0xEC:	Ad_VlAb();	CMP(X);	break;
;;;678    
;;;679    			/* CPY	*/
;;;680    		case 0xC0:	Ad_VlIm();	CMP(Y);	break;
;;;681    		case 0xC4:	Ad_VlZp();	CMP(Y);	break;
;;;682    		case 0xCC:	Ad_VlAb();	CMP(Y);	break;
;;;683    
;;;684    			/* DEC	*/
;;;685    		case 0xCA:	DEC(X);						break;		/* DEX	*/
;;;686    		case 0x88:	DEC(Y);						break;		/* DEY	*/
;;;687    		case 0xC6:	MRW_Zp(DEC);				break;
;;;688    		case 0xCE:	MRW_Ab(DEC);				break;
;;;689    		case 0xD6:	MRW_Zx(DEC);				break;
;;;690    		case 0xDE:	MRW_Ax(DEC);				break;
;;;691    
;;;692    			/* EOR	*/
;;;693    		case 0x41:	Ad_VlIx();	EOR();	break;
;;;694    		case 0x45:	Ad_VlZp();	EOR();	break;
;;;695    		case 0x49:	Ad_VlIm();	EOR();	break;
;;;696    		case 0x4D:	Ad_VlAb();	EOR();	break;
;;;697    		case 0x51:	Ad_VlIy();	EOR();	break;
;;;698    		case 0x55:	Ad_VlZx();	EOR();	break;
;;;699    		case 0x59:	Ad_VlAy();	EOR();	break;
;;;700    		case 0x5D:	Ad_VlAx();	EOR();	break;
;;;701    
;;;702    			/* INC	*/
;;;703    		case 0xE8:	INC(X);						break;		/* INX	*/
;;;704    		case 0xC8:	INC(Y);						break;		/* INY	*/
;;;705    		case 0xE6:	MRW_Zp(INC);				break;
;;;706    		case 0xEE:	MRW_Ab(INC);				break;
;;;707    		case 0xF6:	MRW_Zx(INC);				break;
;;;708    		case 0xFE:	MRW_Ax(INC);				break;
;;;709    
;;;710    			/* JMP	*/
;;;711    		case 0x4C:	final.W = RdWord(PC.W);  PC.W = final.W; val = 0;	break;		/* Absolute JMP	*/
;;;712    		case 0x6C:	front.W = final.W = RdWord(PC.W);
;;;713    					PC.B.l = Rd(final.W); final.B.l++;
;;;714    					PC.B.h = Rd(final.W); final.W = PC.W;
;;;715    					break;		/* Indirect JMP -- must take caution:
;;;716    										Indirection at 01FF will read from 01FF and 0100 (not 0200) */
;;;717    			/* JSR	*/
;;;718    		case 0x20:
;;;719    			val = 0;
;;;720    			final.W = RdWord(PC.W);
;;;721    			PC.W++;				//JSR only incriments the return address by one.  It's incrimented again upon RTS
;;;722    			PUSH(PC.B.h);		//push high byte of return address
;;;723    			PUSH(PC.B.l);		//push low byte of return address
;;;724    			PC.W = final.W;
;;;725    			break;
;;;726    
;;;727    			/* LDA	*/
;;;728    		case 0xA1:	Ad_VlIx(); A = val; UpdateNZ(A);	break;
;;;729    		case 0xA5:	Ad_VlZp(); A = val; UpdateNZ(A);	break;
;;;730    		case 0xA9:	Ad_VlIm(); A = val; UpdateNZ(A);	break;
;;;731    		case 0xAD:	Ad_VlAb(); A = val; UpdateNZ(A);	break;
;;;732    		case 0xB1:	Ad_VlIy(); A = val; UpdateNZ(A);	break;
;;;733    		case 0xB5:	Ad_VlZx(); A = val; UpdateNZ(A);	break;
;;;734    		case 0xB9:	Ad_VlAy(); A = val; UpdateNZ(A);	break;
;;;735    		case 0xBD:	Ad_VlAx(); A = val; UpdateNZ(A);	break;
;;;736    
;;;737    			/* LDX	*/
;;;738    		case 0xA2:	Ad_VlIm(); X = val; UpdateNZ(X);	break;
;;;739    		case 0xA6:	Ad_VlZp(); X = val; UpdateNZ(X);	break;
;;;740    		case 0xAE:	Ad_VlAb(); X = val; UpdateNZ(X);	break;
;;;741    		case 0xB6:	Ad_VlZy(); X = val; UpdateNZ(X);	break;
;;;742    		case 0xBE:	Ad_VlAy(); X = val; UpdateNZ(X);	break;
;;;743    
;;;744    			/* LDY	*/
;;;745    		case 0xA0:	Ad_VlIm(); Y = val; UpdateNZ(Y);	break;
;;;746    		case 0xA4:	Ad_VlZp(); Y = val; UpdateNZ(Y);	break;
;;;747    		case 0xAC:	Ad_VlAb(); Y = val; UpdateNZ(Y);	break;
;;;748    		case 0xB4:	Ad_VlZx(); Y = val; UpdateNZ(Y);	break;
;;;749    		case 0xBC:	Ad_VlAx(); Y = val; UpdateNZ(Y);	break;
;;;750    
;;;751    			/* LSR	*/
;;;752    		case 0x4A:	LSR(A);						break;
;;;753    		case 0x46:	MRW_Zp(LSR);				break;
;;;754    		case 0x4E:	MRW_Ab(LSR);				break;
;;;755    		case 0x56:	MRW_Zx(LSR);				break;
;;;756    		case 0x5E:	MRW_Ax(LSR);				break;
;;;757    
;;;758    			/* NOP	*/
;;;759    		case 0xEA:
;;;760    
;;;761    			/* --- Undocumented ---
;;;762    				These opcodes perform the same action as NOP	*/
;;;763    		case 0x1A:	case 0x3A:	case 0x5A:
;;;764    		case 0x7A:	case 0xDA:	case 0xFA:		break;
;;;765    
;;;766    			/* ORA	*/
;;;767    		case 0x01:	Ad_VlIx();	ORA();	break;
;;;768    		case 0x05:	Ad_VlZp();	ORA();	break;
;;;769    		case 0x09:	Ad_VlIm();	ORA();	break;
;;;770    		case 0x0D:	Ad_VlAb();	ORA();	break;
;;;771    		case 0x11:	Ad_VlIy();	ORA();	break;
;;;772    		case 0x15:	Ad_VlZx();	ORA();	break;
;;;773    		case 0x19:	Ad_VlAy();	ORA();	break;
;;;774    		case 0x1D:	Ad_VlAx();	ORA();	break;
;;;775    
;;;776    			/* ROL	*/
;;;777    		case 0x2A:	ROL(A);						break;
;;;778    		case 0x26:	MRW_Zp(ROL);				break;
;;;779    		case 0x2E:	MRW_Ab(ROL);				break;
;;;780    		case 0x36:	MRW_Zx(ROL);				break;
;;;781    		case 0x3E:	MRW_Ax(ROL);				break;
;;;782    
;;;783    			/* ROR	*/
;;;784    		case 0x6A:	ROR(A);						break;
;;;785    		case 0x66:	MRW_Zp(ROR);				break;
;;;786    		case 0x6E:	MRW_Ab(ROR);				break;
;;;787    		case 0x76:	MRW_Zx(ROR);				break;
;;;788    		case 0x7E:	MRW_Ax(ROR);				break;
;;;789    
;;;790    			/* RTI	*/
;;;791    		case 0x40:
;;;792    			PULL(ST);						//pull processor status
;;;793    			PULL(PC.B.l);					//pull low byte of return address
;;;794    			PULL(PC.B.h);					//pull high byte of return address
;;;795    			break;
;;;796    
;;;797    			/* RTS	*/
;;;798    		case 0x60:
;;;799    			PULL(PC.B.l);
;;;800    			PULL(PC.B.h);
;;;801    			PC.W++;				//the return address is one less of what it needs
;;;802    			break;
;;;803    
;;;804    			/* SBC	*/
;;;805    		case 0xE1:	Ad_VlIx();	SBC();	break;
;;;806    		case 0xE5:	Ad_VlZp();	SBC();	break;
;;;807    		case 0xEB:										/* -- Undocumented --  EB performs the same operation as SBC immediate */
;;;808    		case 0xE9:	Ad_VlIm();	SBC();	break;
;;;809    		case 0xED:	Ad_VlAb();	SBC();	break;
;;;810    		case 0xF1:	Ad_VlIy();	SBC();	break;
;;;811    		case 0xF5:	Ad_VlZx();	SBC();	break;
;;;812    		case 0xF9:	Ad_VlAy();	SBC();	break;
;;;813    		case 0xFD:	Ad_VlAx();	SBC();	break;
;;;814    
;;;815    			/* STA	*/
;;;816    		case 0x81:	Ad_AdIx(); val = A; Wr(final.W,A);	break;
;;;817    		case 0x85:	Ad_AdZp(); val = A; WrZ(final.W,A);	break;
;;;818    		case 0x8D:	Ad_AdAb(); val = A; Wr(final.W,A);	break;
;;;819    		case 0x91:	Ad_AdIy(); val = A; Wr(final.W,A);	break;
;;;820    		case 0x95:	Ad_AdZx(); val = A; WrZ(final.W,A);	break;
;;;821    		case 0x99:	Ad_AdAy(); val = A; Wr(final.W,A);	break;
;;;822    		case 0x9D:	Ad_AdAx(); val = A; Wr(final.W,A);	break;
;;;823    
;;;824    			/* STX	*/
;;;825    		case 0x86:	Ad_AdZp(); val = X; WrZ(final.W,X);	break;
;;;826    		case 0x8E:	Ad_AdAb(); val = X; Wr(final.W,X);	break;
;;;827    		case 0x96:	Ad_AdZy(); val = X; WrZ(final.W,X);	break;
;;;828    
;;;829    			/* STY	*/
;;;830    		case 0x84:	Ad_AdZp(); val = Y; WrZ(final.W,Y);	break;
;;;831    		case 0x8C:	Ad_AdAb(); val = Y; Wr(final.W,Y);	break;
;;;832    		case 0x94:	Ad_AdZx(); val = Y; WrZ(final.W,Y);	break;
;;;833    
;;;834    
;;;835    			//////////////////////////////////////////////////////////////////////////
;;;836    			//  Undocumented Opcodes
;;;837    			/* ASO	*/
;;;838    		case 0x03:	if(bIgnoreIllegalOps) break;	MRW_Ix(ASO);				break;
;;;839    		case 0x07:	if(bIgnoreIllegalOps) break;	MRW_Zp(ASO);				break;
;;;840    		case 0x0F:	if(bIgnoreIllegalOps) break;	MRW_Ab(ASO);				break;
;;;841    		case 0x13:	if(bIgnoreIllegalOps) break;	MRW_Iy(ASO);				break;
;;;842    		case 0x17:	if(bIgnoreIllegalOps) break;	MRW_Zx(ASO);				break;
;;;843    		case 0x1B:	if(bIgnoreIllegalOps) break;	MRW_Ay(ASO);				break;
;;;844    		case 0x1F:	if(bIgnoreIllegalOps) break;	MRW_Ax(ASO);				break;
;;;845    
;;;846    			/* RLA	*/
;;;847    		case 0x23:	if(bIgnoreIllegalOps) break;	MRW_Ix(RLA);				break;
;;;848    		case 0x27:	if(bIgnoreIllegalOps) break;	MRW_Zp(RLA);				break;
;;;849    		case 0x2F:	if(bIgnoreIllegalOps) break;	MRW_Ab(RLA);				break;
;;;850    		case 0x33:	if(bIgnoreIllegalOps) break;	MRW_Iy(RLA);				break;
;;;851    		case 0x37:	if(bIgnoreIllegalOps) break;	MRW_Zx(RLA);				break;
;;;852    		case 0x3B:	if(bIgnoreIllegalOps) break;	MRW_Ay(RLA);				break;
;;;853    		case 0x3F:	if(bIgnoreIllegalOps) break;	MRW_Ax(RLA);				break;
;;;854    
;;;855    			/* LSE	*/
;;;856    		case 0x43:	if(bIgnoreIllegalOps) break;	MRW_Ix(LSE);				break;
;;;857    		case 0x47:	if(bIgnoreIllegalOps) break;	MRW_Zp(LSE);				break;
;;;858    		case 0x4F:	if(bIgnoreIllegalOps) break;	MRW_Ab(LSE);				break;
;;;859    		case 0x53:	if(bIgnoreIllegalOps) break;	MRW_Iy(LSE);				break;
;;;860    		case 0x57:	if(bIgnoreIllegalOps) break;	MRW_Zx(LSE);				break;
;;;861    		case 0x5B:	if(bIgnoreIllegalOps) break;	MRW_Ay(LSE);				break;
;;;862    		case 0x5F:	if(bIgnoreIllegalOps) break;	MRW_Ax(LSE);				break;
;;;863    
;;;864    			/* RRA	*/
;;;865    		case 0x63:	if(bIgnoreIllegalOps) break;	MRW_Ix(RRA);				break;
;;;866    		case 0x67:	if(bIgnoreIllegalOps) break;	MRW_Zp(RRA);				break;
;;;867    		case 0x6F:	if(bIgnoreIllegalOps) break;	MRW_Ab(RRA);				break;
;;;868    		case 0x73:	if(bIgnoreIllegalOps) break;	MRW_Iy(RRA);				break;
;;;869    		case 0x77:	if(bIgnoreIllegalOps) break;	MRW_Zx(RRA);				break;
;;;870    		case 0x7B:	if(bIgnoreIllegalOps) break;	MRW_Ay(RRA);				break;
;;;871    		case 0x7F:	if(bIgnoreIllegalOps) break;	MRW_Ax(RRA);				break;
;;;872    
;;;873    			/* AXS	*/
;;;874    		case 0x83:	if(bIgnoreIllegalOps) break;	MRW_Ix(AXS);				break;
;;;875    		case 0x87:	if(bIgnoreIllegalOps) break;	MRW_Zp(AXS);				break;
;;;876    		case 0x8F:	if(bIgnoreIllegalOps) break;	MRW_Ab(AXS);				break;
;;;877    		case 0x97:	if(bIgnoreIllegalOps) break;	MRW_Zy(AXS);				break;
;;;878    
;;;879    			/* LAX	*/
;;;880    		case 0xA3:	if(bIgnoreIllegalOps) break;	Ad_VlIx();	X = A = val; UpdateNZ(A);	break;
;;;881    		case 0xA7:	if(bIgnoreIllegalOps) break;	Ad_VlZp();	X = A = val; UpdateNZ(A);	break;
;;;882    		case 0xAF:	if(bIgnoreIllegalOps) break;	Ad_VlAb();	X = A = val; UpdateNZ(A);	break;
;;;883    		case 0xB3:	if(bIgnoreIllegalOps) break;	Ad_VlIy();	X = A = val; UpdateNZ(A);	break;
;;;884    		case 0xB7:	if(bIgnoreIllegalOps) break;	Ad_VlZy();	X = A = val; UpdateNZ(A);	break;
;;;885    		case 0xBF:	if(bIgnoreIllegalOps) break;	Ad_VlAy();	X = A = val; UpdateNZ(A);	break;
;;;886    
;;;887    			/* DCM	*/
;;;888    		case 0xC3:	if(bIgnoreIllegalOps) break;	MRW_Ix(DCM);				break;
;;;889    		case 0xC7:	if(bIgnoreIllegalOps) break;	MRW_Zp(DCM);				break;
;;;890    		case 0xCF:	if(bIgnoreIllegalOps) break;	MRW_Ab(DCM);				break;
;;;891    		case 0xD3:	if(bIgnoreIllegalOps) break;	MRW_Iy(DCM);				break;
;;;892    		case 0xD7:	if(bIgnoreIllegalOps) break;	MRW_Zx(DCM);				break;
;;;893    		case 0xDB:	if(bIgnoreIllegalOps) break;	MRW_Ay(DCM);				break;
;;;894    		case 0xDF:	if(bIgnoreIllegalOps) break;	MRW_Ax(DCM);				break;
;;;895    
;;;896    			/* INS	*/
;;;897    		case 0xE3:	if(bIgnoreIllegalOps) break;	MRW_Ix(INS);				break;
;;;898    		case 0xE7:	if(bIgnoreIllegalOps) break;	MRW_Zp(INS);				break;
;;;899    		case 0xEF:	if(bIgnoreIllegalOps) break;	MRW_Ab(INS);				break;
;;;900    		case 0xF3:	if(bIgnoreIllegalOps) break;	MRW_Iy(INS);				break;
;;;901    		case 0xF7:	if(bIgnoreIllegalOps) break;	MRW_Zx(INS);				break;
;;;902    		case 0xFB:	if(bIgnoreIllegalOps) break;	MRW_Ay(INS);				break;
;;;903    		case 0xFF:	if(bIgnoreIllegalOps) break;	MRW_Ax(INS);				break;
;;;904    
;;;905    			/* ALR
;;;906    					AND Accumulator with memory and LSR the result	*/
;;;907    		case 0x4B:	if(bIgnoreIllegalOps) break;	Ad_VlIm();	A &= val;	LSR(A);	break;
;;;908    
;;;909    			/* ARR
;;;910    					ANDs memory with the Accumulator and RORs the result	*/
;;;911    		case 0x6B:	if(bIgnoreIllegalOps) break;	Ad_VlIm();	A &= val;	ROR(A);	break;
;;;912    
;;;913    			/* XAA
;;;914    					Transfers X -> A, then ANDs A with memory				*/
;;;915    		case 0x8B:	if(bIgnoreIllegalOps) break;	Ad_VlIm();	A = X & val; UpdateNZ(A);	break;
;;;916    
;;;917    			/* OAL
;;;918    					OR the Accumulator with #EE, AND Accumulator with Memory, Transfer A -> X	*/
;;;919    		case 0xAB:	if(bIgnoreIllegalOps) break;	Ad_VlIm();	X = (A &= (val | 0xEE));
;;;920    													UpdateNZ(A);	break;
;;;921    
;;;922    			/* SAX
;;;923    					ANDs A and X registers (does not change A), subtracts memory from result (CMP style, not SBC style)
;;;924    					result is stored in X								*/
;;;925    		case 0xCB:	if(bIgnoreIllegalOps) break;
;;;926    				Ad_VlIm();	tw.W = (X & A) - val; X = tw.B.l;
;;;927    					ST = (ST & ~(N_FLAG|Z_FLAG|C_FLAG)) | NZTable[X] | (tw.B.h ? C_FLAG : 0);	break;
;;;928    
;;;929    			/* SKB
;;;930    					Skip Byte... or DOP - Double No-Op
;;;931    					These bytes do nothing, but take a parameter (which can be ignored)	*/
;;;932    		case 0x04:	case 0x14:	case 0x34:	case 0x44:	case 0x54:	case 0x64:
;;;933    		case 0x80:	case 0x82:	case 0x89:	case 0xC2:	case 0xD4:	case 0xE2:	case 0xF4:
;;;934    			if(bIgnoreIllegalOps) break;
;;;935    			PC.W++;		//skip unused byte
;;;936    			break;
;;;937    
;;;938    			/* SKW
;;;939    					Swip Word... or TOP - Tripple No-Op
;;;940    					These bytes are the same as SKB, only they take a 2 byte parameter.
;;;941    					This can be ignored in some cases, but the read needs to be performed in a some cases
;;;942    					because an extra clock cycle may be used in the process		*/
;;;943    		case 0x0C:		//Absolute address... no need for operator
;;;944    			if(bIgnoreIllegalOps) break;
;;;945    			PC.W += 2;	break;
;;;946    		case 0x1C:	case 0x3C:	case 0x5C:	case 0x7C:	case 0xDC:	case 0xFC:	//Absolute X address... may cross page, have to perform the read
;;;947    			if(bIgnoreIllegalOps) break;
;;;948    			Ad_VlAx(); break;
;;;949    
;;;950    			/* HLT / JAM
;;;951    					Jams up CPU operation			*/
;;;952    		case 0x02:	case 0x12:	case 0x22:	case 0x32:	case 0x42:	case 0x52:
;;;953    		case 0x62:	case 0x72:	case 0x92:	case 0xB2:	case 0xD2:	case 0xF2:
;;;954    			if(PC.W == 0x5004)	bCPUJammed = 2;		//it's not -really- jammed... only the NSF code has ended
;;;955    			else
;;;956    			{
;;;957    				if(bIgnoreIllegalOps) break;
;;;958    				bCPUJammed = 1;
;;;959    			}
;;;960    			goto jammed;
;;;961    
;;;962    			/* TAS	*/
;;;963    		case 0x9B:
;;;964    			if(bIgnoreIllegalOps) break;
;;;965    			Ad_AdAy();
;;;966    			SP = A & X & (Rd(PC.W - 1) + 1);
;;;967    			Wr(final.W,SP);
;;;968    			break;
;;;969    
;;;970    			/* SAY	*/
;;;971    		case 0x9C:
;;;972    			if(bIgnoreIllegalOps) break;
;;;973    			Ad_AdAx();
;;;974    			Y &= (Rd(PC.W - 1) + 1);
;;;975    			Wr(final.W,Y);
;;;976    			break;
;;;977    
;;;978    			/* XAS	*/
;;;979    		case 0x9E:
;;;980    			if(bIgnoreIllegalOps) break;
;;;981    			Ad_AdAy();
;;;982    			X &= (Rd(PC.W - 1) + 1);
;;;983    			Wr(final.W,X);
;;;984    			break;
;;;985    
;;;986    			/* AXA	*/
;;;987    		case 0x93:	if(bIgnoreIllegalOps) break;	MRW_Iy(AXA);					break;
;;;988    		case 0x9F:	if(bIgnoreIllegalOps) break;	MRW_Ay(AXA);					break;
;;;989    
;;;990    			/* ANC	*/
;;;991    		case 0x0B:	case 0x2B:
;;;992    			if(bIgnoreIllegalOps) break;
;;;993    			Ad_VlIm();
;;;994    			A &= val;
;;;995    			ST = (ST & ~(N_FLAG|Z_FLAG|C_FLAG)) | NZTable[A] | ((A & 0x80) ? C_FLAG : 0);
;;;996    			break;
;;;997    
;;;998    			/* LAS	*/
;;;999    		case 0xBB:
;;;1000   			if(bIgnoreIllegalOps) break;
;;;1001   			Ad_VlAy();
;;;1002   			X = A = (SP &= val);
;;;1003   			UpdateNZ(A);
;;;1004   			break;
;;;1005   		}
;;;1006   
;;;1007   		//DEBUG(" finished executing");
;;;1008   	}
;;;1009   
;;;1010   jammed:
;;;1011   	regPC = PC.W;
;;;1012   	regA = A;
;;;1013   	regX = X;
;;;1014   	regY = Y;
;;;1015   	regSP = SP;
;;;1016   	regP = ST;
;;;1017   
;;;1018   	//DEBUG(endl);
;;;1019   
;;;1020   	return (nCPUCycle - ret);
;;;1021   }
000012  b003              ADDEQ    sp,sp,#0xc
000014  e8bd8ff0          POPEQ    {r4-r11,pc}
000018  78ef              LDRB     r7,[r5,#3]            ;542  ; regP
00001a  7928              LDRB     r0,[r5,#4]            ;544  ; regSP
00001c  9000              STR      r0,[sp,#0]            ;545
00001e  6928              LDR      r0,[r5,#0x10]         ;552  ; nCPUCycle
000020  782e              LDRB     r6,[r5,#0]            ;545  ; regA
000022  f8959001          LDRB     r9,[r5,#1]            ;546  ; regX
000026  f895a002          LDRB     r10,[r5,#2]           ;547  ; regY
00002a  896c              LDRH     r4,[r5,#0xa]          ;550  ; regPC
00002c  9001              STR      r0,[sp,#4]            ;557
00002e  4558              CMP      r0,r11                ;557
000030  f0838555          BCS.W    |L1.15070|
                  |L1.52|
000034  b2a4              UXTH     r4,r4                 ;557
000036  f8df824c          LDR      r8,|L1.644|
00003a  0b20              LSRS     r0,r4,#12             ;559
00003c  f8581020          LDR      r1,[r8,r0,LSL #2]     ;559
000040  4620              MOV      r0,r4                 ;559
000042  4788              BLX      r1                    ;559
000044  7268              STRB     r0,[r5,#9]            ;559
000046  4601              MOV      r1,r0                 ;559
000048  4a8f              LDR      r2,|L1.648|
00004a  1c60              ADDS     r0,r4,#1              ;560
00004c  692b              LDR      r3,[r5,#0x10]         ;562  ; nCPUCycle
00004e  5c52              LDRB     r2,[r2,r1]            ;562
000050  b280              UXTH     r0,r0                 ;560
000052  441a              ADD      r2,r2,r3              ;562
000054  4604              MOV      r4,r0                 ;560
000056  612a              STR      r2,[r5,#0x10]         ;566  ; nCPUCycle
000058  2980              CMP      r1,#0x80              ;566
00005a  f00383d0          BEQ.W    |L1.14334|
00005e  dc03              BGT      |L1.104|
000060  2980              CMP      r1,#0x80              ;566
000062  f0838538          BCS.W    |L1.15062|
000066  e000              B        |L1.106|
                  |L1.104|
000068  e104              B        |L1.628|
                  |L1.106|
00006a  008a              LSLS     r2,r1,#2              ;566
00006c  447a              ADD      r2,r2,pc              ;566
00006e  6852              LDR      r2,[r2,#4]            ;566
000070  4497              ADD      pc,pc,r2              ;566
000072  0000              DCW      0x0000
                          DCD      0x00000c4a
                          DCD      0x00001942
                          DCD      0x000037f4
                          DCD      0x00002352
                          DCD      0x0000378a
                          DCD      0x00001964
                          DCD      0x00000abc
                          DCD      0x000023ae
                          DCD      0x000005b0
                          DCD      0x0000198a
                          DCD      0x00000aa6
                          DCD      0x000039dc
                          DCD      0x00003796
                          DCD      0x000019aa
                          DCD      0x00000aee
                          DCD      0x000023e8
                          DCD      0x00000458
                          DCD      0x000019ec
                          DCD      0x000037f4
                          DCD      0x0000244c
                          DCD      0x0000378a
                          DCD      0x00001a4c
                          DCD      0x00000b46
                          DCD      0x000024aa
                          DCD      0x00000420
                          DCD      0x00001a74
                          DCD      0x00003a62
                          DCD      0x000024ec
                          DCD      0x000037a4
                          DCD      0x00001ac6
                          DCD      0x00000b80
                          DCD      0x00002554
                          DCD      0x0000142a
                          DCD      0x00000904
                          DCD      0x000037f4
                          DCD      0x000025bc
                          DCD      0x00000bdc
                          DCD      0x00000926
                          DCD      0x00001b1c
                          DCD      0x0000261e
                          DCD      0x000005c6
                          DCD      0x00000948
                          DCD      0x00001b02
                          DCD      0x000039dc
                          DCD      0x00000c00
                          DCD      0x00000964
                          DCD      0x00001b52
                          DCD      0x00002670
                          DCD      0x00000494
                          DCD      0x000009a2
                          DCD      0x000037f4
                          DCD      0x000026da
                          DCD      0x0000378a
                          DCD      0x000009f8
                          DCD      0x00001bb0
                          DCD      0x0000273e
                          DCD      0x00000428
                          DCD      0x00000a1c
                          DCD      0x00003a62
                          DCD      0x00002786
                          DCD      0x000037a4
                          DCD      0x00000a6a
                          DCD      0x00001bee
                          DCD      0x000027f4
                          DCD      0x00001da6
                          DCD      0x000010da
                          DCD      0x000037f4
                          DCD      0x00002862
                          DCD      0x0000378a
                          DCD      0x000010fc
                          DCD      0x0000181e
                          DCD      0x000028be
                          DCD      0x000005d6
                          DCD      0x0000111e
                          DCD      0x00001808
                          DCD      0x0000369a
                          DCD      0x000013ba
                          DCD      0x0000113a
                          DCD      0x00001852
                          DCD      0x000028fc
                          DCD      0x000004bc
                          DCD      0x00001178
                          DCD      0x000037f4
                          DCD      0x00002960
                          DCD      0x0000378a
                          DCD      0x000011c2
                          DCD      0x000018aa
                          DCD      0x000029be
                          DCD      0x00000430
                          DCD      0x000011e6
                          DCD      0x00003a62
                          DCD      0x00002a04
                          DCD      0x000037a4
                          DCD      0x00001248
                          DCD      0x000018e6
                          DCD      0x00002a7c
                          DCD      0x00001dcc
                          DCD      0x00000652
                          DCD      0x000037f4
                          DCD      0x00002ae4
                          DCD      0x0000378a
                          DCD      0x000006b4
                          DCD      0x00001c70
                          DCD      0x00002b6a
                          DCD      0x000005e8
                          DCD      0x000006f0
                          DCD      0x00001c50
                          DCD      0x000036d8
                          DCD      0x000013e2
                          DCD      0x00000726
                          DCD      0x00001ca4
                          DCD      0x00002bce
                          DCD      0x000004e4
                          DCD      0x0000077e
                          DCD      0x000037f4
                          DCD      0x00002c60
                          DCD      0x00003a62
                          DCD      0x000007e4
                          DCD      0x00001d02
                          DCD      0x00002cce
                          DCD      0x00000438
                          DCD      0x00000822
                          DCD      0x00003a62
                          DCD      0x00002d3c
                          DCD      0x000037a4
                          DCD      0x00000892
                          DCD      0x00001d44
                          DCD      0x00002dcc
                  |L1.628|
000274  3981              SUBS     r1,r1,#0x81           ;566
000276  297f              CMP      r1,#0x7f              ;566
000278  f083842d          BCS.W    |L1.15062|
00027c  e006              B        |L1.652|
00027e  0000              DCW      0x0000
                  |L1.640|
                          DCD      ||.data||
                  |L1.644|
                          DCD      ||.bss||+0x800
                  |L1.648|
                          DCD      ||.constdata||
                  |L1.652|
00028c  008a              LSLS     r2,r1,#2              ;566
00028e  bf00              NOP                            ;566
000290  447a              ADD      r2,r2,pc              ;566
000292  6852              LDR      r2,[r2,#4]            ;566
000294  4497              ADD      pc,pc,r2              ;566
000296  0000              DCW      0x0000
                          DCD      0x00001ef6
                          DCD      0x00003566
                          DCD      0x00002c1c
                          DCD      0x000020b8
                          DCD      0x00001f26
                          DCD      0x00002044
                          DCD      0x00002c76
                          DCD      0x00000d9c
                          DCD      0x00003566
                          DCD      0x000003dc
                          DCD      0x000034e4
                          DCD      0x000020d2
                          DCD      0x00001f3c
                          DCD      0x0000205e
                          DCD      0x00002c94
                          DCD      0x000002e8
                          DCD      0x00001f70
                          DCD      0x000035d0
                          DCD      0x000036f6
                          DCD      0x0000210a
                          DCD      0x00001fa2
                          DCD      0x00002094
                          DCD      0x00002ce4
                          DCD      0x000003ea
                          DCD      0x00001fc2
                          DCD      0x000003f8
                          DCD      0x000035e8
                          DCD      0x00003644
                          DCD      0x00001ffa
                          DCD      0x000036a0
                          DCD      0x00003750
                          DCD      0x000014ea
                          DCD      0x0000124c
                          DCD      0x000013e2
                          DCD      0x00002d0c
                          DCD      0x00001508
                          DCD      0x0000126e
                          DCD      0x00001410
                          DCD      0x00002d52
                          DCD      0x00000400
                          DCD      0x00001292
                          DCD      0x0000040e
                          DCD      0x00003508
                          DCD      0x0000152e
                          DCD      0x000012aa
                          DCD      0x00001436
                          DCD      0x00002d80
                          DCD      0x00000310
                          DCD      0x000012e6
                          DCD      0x000035d0
                          DCD      0x00002dc6
                          DCD      0x0000156a
                          DCD      0x00001334
                          DCD      0x00001470
                          DCD      0x00002e18
                          DCD      0x0000021c
                          DCD      0x0000135a
                          DCD      0x0000041c
                          DCD      0x000037de
                          DCD      0x00001592
                          DCD      0x000013a8
                          DCD      0x00001498
                          DCD      0x00002e48
                          DCD      0x00000cfa
                          DCD      0x00000a86
                          DCD      0x00003566
                          DCD      0x00002e88
                          DCD      0x00000d1a
                          DCD      0x00000ace
                          DCD      0x00000db2
                          DCD      0x00002eea
                          DCD      0x00001078
                          DCD      0x00000af4
                          DCD      0x00000d84
                          DCD      0x00003530
                          DCD      0x00000d3e
                          DCD      0x00000b10
                          DCD      0x00000ddc
                          DCD      0x00002f2c
                          DCD      0x00000338
                          DCD      0x00000b4e
                          DCD      0x000035d0
                          DCD      0x00002f98
                          DCD      0x00003566
                          DCD      0x00000b98
                          DCD      0x00000e2e
                          DCD      0x00002fea
                          DCD      0x00000224
                          DCD      0x00000bbc
                          DCD      0x0000383e
                          DCD      0x00003036
                          DCD      0x00003580
                          DCD      0x00000c24
                          DCD      0x00000e60
                          DCD      0x000030b6
                          DCD      0x00000c78
                          DCD      0x00001bca
                          DCD      0x00003566
                          DCD      0x0000310c
                          DCD      0x00000c96
                          DCD      0x00001c44
                          DCD      0x0000108e
                          DCD      0x00003192
                          DCD      0x00001060
                          DCD      0x00001c94
                          DCD      0x0000383e
                          DCD      0x00001c94
                          DCD      0x00000cba
                          DCD      0x00001cd4
                          DCD      0x000010b8
                          DCD      0x000031fc
                          DCD      0x00000360
                          DCD      0x00001d36
                          DCD      0x000035d0
                          DCD      0x0000328e
                          DCD      0x00003566
                          DCD      0x00001da8
                          DCD      0x0000110a
                          DCD      0x00003300
                          DCD      0x0000022c
                          DCD      0x00001dfc
                          DCD      0x0000383e
                          DCD      0x00003372
                          DCD      0x00003580
                          DCD      0x00001e74
                          DCD      0x00001140
                          DCD      0x000033fe
000494  f0270701          BIC      r7,r7,#1              ;573
000498  f003bb1d          B.W      |L1.15062|
00049c  f0470701          ORR      r7,r7,#1              ;574
0004a0  f003bb19          B.W      |L1.15062|
0004a4  f0270704          BIC      r7,r7,#4              ;575
0004a8  f003bb15          B.W      |L1.15062|
0004ac  f0470704          ORR      r7,r7,#4              ;576
0004b0  f003bb11          B.W      |L1.15062|
0004b4  f0270740          BIC      r7,r7,#0x40           ;577
0004b8  f003bb0d          B.W      |L1.15062|
0004bc  f0270708          BIC      r7,r7,#8              ;578
0004c0  f003bb09          B.W      |L1.15062|
0004c4  f0470708          ORR      r7,r7,#8              ;579
0004c8  f003bb05          B.W      |L1.15062|
0004cc  0b01              LSRS     r1,r0,#12             ;583
0004ce  f8581021          LDR      r1,[r8,r1,LSL #2]     ;583
0004d2  4788              BLX      r1                    ;583
0004d4  7228              STRB     r0,[r5,#8]            ;583
0004d6  4601              MOV      r1,r0                 ;583
0004d8  1c60              ADDS     r0,r4,#1              ;583
0004da  b284              UXTH     r4,r0                 ;583
0004dc  fa44f081          SXTAB    r0,r4,r1              ;583
0004e0  b280              UXTH     r0,r0                 ;583
0004e2  f0170f80          TST      r7,#0x80              ;583
0004e6  f04382f6          BNE.W    |L1.15062|
0004ea  ea4f2110          LSR      r1,r0,#8              ;583
0004ee  ea4f2214          LSR      r2,r4,#8              ;583
0004f2  4291              CMP      r1,r2                 ;583
0004f4  d001              BEQ      |L1.1274|
                  |L1.1270|
0004f6  2102              MOVS     r1,#2                 ;583
0004f8  e000              B        |L1.1276|
                  |L1.1274|
0004fa  2101              MOVS     r1,#1                 ;583
                  |L1.1276|
0004fc  692a              LDR      r2,[r5,#0x10]         ;590  ; nCPUCycle
0004fe  4604              MOV      r4,r0                 ;590
000500  4411              ADD      r1,r1,r2              ;590
000502  6129              STR      r1,[r5,#0x10]         ;590  ; nCPUCycle
000504  f003bae7          B.W      |L1.15062|
000508  0b01              LSRS     r1,r0,#12             ;584
00050a  f8581021          LDR      r1,[r8,r1,LSL #2]     ;584
00050e  4788              BLX      r1                    ;584
000510  7228              STRB     r0,[r5,#8]            ;584
000512  4601              MOV      r1,r0                 ;584
000514  1c60              ADDS     r0,r4,#1              ;584
000516  b284              UXTH     r4,r0                 ;584
000518  fa44f081          SXTAB    r0,r4,r1              ;584
00051c  b280              UXTH     r0,r0                 ;584
00051e  f0170f80          TST      r7,#0x80              ;584
000522  f00382d8          BEQ.W    |L1.15062|
000526  0a01              LSRS     r1,r0,#8              ;584
000528  0a22              LSRS     r2,r4,#8              ;584
00052a  4291              CMP      r1,r2                 ;584
00052c  d0e5              BEQ      |L1.1274|
00052e  e7e2              B        |L1.1270|
000530  0b01              LSRS     r1,r0,#12             ;585
000532  f8581021          LDR      r1,[r8,r1,LSL #2]     ;585
000536  4788              BLX      r1                    ;585
000538  7228              STRB     r0,[r5,#8]            ;585
00053a  4601              MOV      r1,r0                 ;585
00053c  1c60              ADDS     r0,r4,#1              ;585
00053e  b284              UXTH     r4,r0                 ;585
000540  fa44f081          SXTAB    r0,r4,r1              ;585
000544  b280              UXTH     r0,r0                 ;585
000546  f0170f40          TST      r7,#0x40              ;585
00054a  f04382c4          BNE.W    |L1.15062|
00054e  0a01              LSRS     r1,r0,#8              ;585
000550  0a22              LSRS     r2,r4,#8              ;585
000552  4291              CMP      r1,r2                 ;585
000554  d0d1              BEQ      |L1.1274|
000556  e7ce              B        |L1.1270|
000558  0b01              LSRS     r1,r0,#12             ;586
00055a  f8581021          LDR      r1,[r8,r1,LSL #2]     ;586
00055e  4788              BLX      r1                    ;586
000560  7228              STRB     r0,[r5,#8]            ;586
000562  4601              MOV      r1,r0                 ;586
000564  1c60              ADDS     r0,r4,#1              ;586
000566  b284              UXTH     r4,r0                 ;586
000568  fa44f081          SXTAB    r0,r4,r1              ;586
00056c  b280              UXTH     r0,r0                 ;586
00056e  f0170f40          TST      r7,#0x40              ;586
000572  f00382b0          BEQ.W    |L1.15062|
000576  0a01              LSRS     r1,r0,#8              ;586
000578  0a22              LSRS     r2,r4,#8              ;586
00057a  4291              CMP      r1,r2                 ;586
00057c  d0bd              BEQ      |L1.1274|
00057e  e7ba              B        |L1.1270|
000580  0b01              LSRS     r1,r0,#12             ;587
000582  f8581021          LDR      r1,[r8,r1,LSL #2]     ;587
000586  4788              BLX      r1                    ;587
000588  7228              STRB     r0,[r5,#8]            ;587
00058a  4601              MOV      r1,r0                 ;587
00058c  1c60              ADDS     r0,r4,#1              ;587
00058e  b284              UXTH     r4,r0                 ;587
000590  fa44f081          SXTAB    r0,r4,r1              ;587
000594  b280              UXTH     r0,r0                 ;587
000596  f0170f01          TST      r7,#1                 ;587
00059a  f043829c          BNE.W    |L1.15062|
00059e  0a01              LSRS     r1,r0,#8              ;587
0005a0  0a22              LSRS     r2,r4,#8              ;587
0005a2  4291              CMP      r1,r2                 ;587
0005a4  d0a9              BEQ      |L1.1274|
0005a6  e7a6              B        |L1.1270|
0005a8  0b01              LSRS     r1,r0,#12             ;588
0005aa  f8581021          LDR      r1,[r8,r1,LSL #2]     ;588
0005ae  4788              BLX      r1                    ;588
0005b0  7228              STRB     r0,[r5,#8]            ;588
0005b2  4601              MOV      r1,r0                 ;588
0005b4  1c60              ADDS     r0,r4,#1              ;588
0005b6  b284              UXTH     r4,r0                 ;588
0005b8  fa44f081          SXTAB    r0,r4,r1              ;588
0005bc  b280              UXTH     r0,r0                 ;588
0005be  f0170f01          TST      r7,#1                 ;588
0005c2  f0038288          BEQ.W    |L1.15062|
0005c6  0a01              LSRS     r1,r0,#8              ;588
0005c8  0a22              LSRS     r2,r4,#8              ;588
0005ca  4291              CMP      r1,r2                 ;588
0005cc  d095              BEQ      |L1.1274|
0005ce  e792              B        |L1.1270|
0005d0  0b01              LSRS     r1,r0,#12             ;589
0005d2  f8581021          LDR      r1,[r8,r1,LSL #2]     ;589
0005d6  4788              BLX      r1                    ;589
0005d8  7228              STRB     r0,[r5,#8]            ;589
0005da  4601              MOV      r1,r0                 ;589
0005dc  1c60              ADDS     r0,r4,#1              ;589
0005de  b284              UXTH     r4,r0                 ;589
0005e0  fa44f081          SXTAB    r0,r4,r1              ;589
0005e4  b280              UXTH     r0,r0                 ;589
0005e6  f0170f02          TST      r7,#2                 ;589
0005ea  f0438274          BNE.W    |L1.15062|
0005ee  0a01              LSRS     r1,r0,#8              ;589
0005f0  0a22              LSRS     r2,r4,#8              ;589
0005f2  4291              CMP      r1,r2                 ;589
0005f4  d081              BEQ      |L1.1274|
0005f6  e77e              B        |L1.1270|
0005f8  0b01              LSRS     r1,r0,#12             ;590
0005fa  f8581021          LDR      r1,[r8,r1,LSL #2]     ;590
0005fe  4788              BLX      r1                    ;590
000600  7228              STRB     r0,[r5,#8]            ;590
000602  4601              MOV      r1,r0                 ;590
000604  1c60              ADDS     r0,r4,#1              ;590
000606  b284              UXTH     r4,r0                 ;590
000608  fa44f081          SXTAB    r0,r4,r1              ;590
00060c  b280              UXTH     r0,r0                 ;590
00060e  f0170f02          TST      r7,#2                 ;590
000612  f0038260          BEQ.W    |L1.15062|
000616  0a01              LSRS     r1,r0,#8              ;590
000618  0a22              LSRS     r2,r4,#8              ;590
00061a  4291              CMP      r1,r2                 ;590
00061c  f43faf6d          BEQ      |L1.1274|
000620  e769              B        |L1.1270|
000622  bf00              NOP                            ;595
000624  68ea              LDR      r2,[r5,#0xc]          ;595  ; pStack
000626  9800              LDR      r0,[sp,#0]            ;595
000628  f0470130          ORR      r1,r7,#0x30           ;595
00062c  5411              STRB     r1,[r2,r0]            ;595
00062e  9800              LDR      r0,[sp,#0]            ;595
000630  1e40              SUBS     r0,r0,#1              ;595
000632  b2c0              UXTB     r0,r0                 ;595
000634  9000              STR      r0,[sp,#0]            ;595
000636  f003ba4e          B.W      |L1.15062|
00063a  9800              LDR      r0,[sp,#0]            ;596
00063c  1c40              ADDS     r0,r0,#1              ;596
00063e  b2c0              UXTB     r0,r0                 ;596
000640  9000              STR      r0,[sp,#0]            ;596
000642  68e9              LDR      r1,[r5,#0xc]          ;596  ; pStack
000644  5c0f              LDRB     r7,[r1,r0]            ;596
000646  f003ba46          B.W      |L1.15062|
00064a  68e9              LDR      r1,[r5,#0xc]          ;597  ; pStack
00064c  9800              LDR      r0,[sp,#0]            ;597
00064e  540e              STRB     r6,[r1,r0]            ;597
000650  9800              LDR      r0,[sp,#0]            ;597
000652  1e40              SUBS     r0,r0,#1              ;597
000654  b2c0              UXTB     r0,r0                 ;597
000656  9000              STR      r0,[sp,#0]            ;597
000658  f003ba3d          B.W      |L1.15062|
00065c  9800              LDR      r0,[sp,#0]            ;598
00065e  1c40              ADDS     r0,r0,#1              ;598
000660  b2c0              UXTB     r0,r0                 ;598
000662  9000              STR      r0,[sp,#0]            ;598
000664  68e9              LDR      r1,[r5,#0xc]          ;598  ; pStack
000666  5c0e              LDRB     r6,[r1,r0]            ;598
000668  49fd              LDR      r1,|L1.2656|
00066a  f0270082          BIC      r0,r7,#0x82           ;598
00066e  5d89              LDRB     r1,[r1,r6]            ;598
000670  f003b8c2          B.W      |L1.14328|
000674  49fa              LDR      r1,|L1.2656|
000676  464e              MOV      r6,r9                 ;603
000678  f0270082          BIC      r0,r7,#0x82           ;603
00067c  5d89              LDRB     r1,[r1,r6]            ;603
00067e  f003b8bb          B.W      |L1.14328|
000682  49f7              LDR      r1,|L1.2656|
000684  4656              MOV      r6,r10                ;604
000686  f0270082          BIC      r0,r7,#0x82           ;604
00068a  5d89              LDRB     r1,[r1,r6]            ;604
00068c  f003b8b4          B.W      |L1.14328|
000690  f8cd9000          STR      r9,[sp,#0]            ;605
000694  f003ba1f          B.W      |L1.15062|
000698  49f1              LDR      r1,|L1.2656|
00069a  46b2              MOV      r10,r6                ;606
00069c  f0270082          BIC      r0,r7,#0x82           ;606
0006a0  5d89              LDRB     r1,[r1,r6]            ;606
0006a2  f003b8a9          B.W      |L1.14328|
0006a6  49ee              LDR      r1,|L1.2656|
0006a8  46b1              MOV      r9,r6                 ;607
0006aa  f0270082          BIC      r0,r7,#0x82           ;607
0006ae  5d89              LDRB     r1,[r1,r6]            ;607
0006b0  f003b8a2          B.W      |L1.14328|
0006b4  49ea              LDR      r1,|L1.2656|
0006b6  f8dd9000          LDR      r9,[sp,#0]            ;608
0006ba  f0270082          BIC      r0,r7,#0x82           ;608
0006be  f8111009          LDRB     r1,[r1,r9]            ;608
0006c2  f003b899          B.W      |L1.14328|
0006c6  0b01              LSRS     r1,r0,#12             ;615
0006c8  f8581021          LDR      r1,[r8,r1,LSL #2]     ;615
0006cc  4788              BLX      r1                    ;615
0006ce  4448              ADD      r0,r0,r9              ;615
0006d0  b2c1              UXTB     r1,r0                 ;615
0006d2  1c60              ADDS     r0,r4,#1              ;615
0006d4  b284              UXTH     r4,r0                 ;615
0006d6  48e3              LDR      r0,|L1.2660|
0006d8  5c42              LDRB     r2,[r0,r1]            ;615
0006da  1c49              ADDS     r1,r1,#1              ;615
0006dc  fa50f081          UXTAB    r0,r0,r1              ;615
0006e0  7800              LDRB     r0,[r0,#0]            ;615
0006e2  ea422000          ORR      r0,r2,r0,LSL #8       ;615
0006e6  0b01              LSRS     r1,r0,#12             ;615
0006e8  f8581021          LDR      r1,[r8,r1,LSL #2]     ;615
0006ec  4788              BLX      r1                    ;615
0006ee  4601              MOV      r1,r0                 ;615
0006f0  7228              STRB     r0,[r5,#8]            ;615
0006f2  1870              ADDS     r0,r6,r1              ;615
0006f4  f0070201          AND      r2,r7,#1              ;615
0006f8  4410              ADD      r0,r0,r2              ;615
0006fa  f3c02207          UBFX     r2,r0,#8,#8           ;615
0006fe  4bd8              LDR      r3,|L1.2656|
000700  b2c0              UXTB     r0,r0                 ;615
000702  4071              EORS     r1,r1,r6              ;615
000704  5c1b              LDRB     r3,[r3,r0]            ;615
000706  431a              ORRS     r2,r2,r3              ;615
000708  ea800306          EOR      r3,r0,r6              ;615
00070c  ea230101          BIC      r1,r3,r1              ;615
000710  f0110180          ANDS     r1,r1,#0x80           ;615
000714  f040812e          BNE.W    |L1.2420|
                  |L1.1816|
000718  f007030c          AND      r3,r7,#0xc            ;615
00071c  4319              ORRS     r1,r1,r3              ;615
00071e  ea420701          ORR      r7,r2,r1              ;615
                  |L1.1826|
000722  4606              MOV      r6,r0                 ;615
000724  f003b9d7          B.W      |L1.15062|
000728  0b01              LSRS     r1,r0,#12             ;616
00072a  f8581021          LDR      r1,[r8,r1,LSL #2]     ;616
00072e  4788              BLX      r1                    ;616
000730  49cc              LDR      r1,|L1.2660|
000732  b280              UXTH     r0,r0                 ;616
000734  f0070201          AND      r2,r7,#1              ;616
000738  5c09              LDRB     r1,[r1,r0]            ;616
00073a  1c60              ADDS     r0,r4,#1              ;616
00073c  b284              UXTH     r4,r0                 ;616
00073e  1870              ADDS     r0,r6,r1              ;616
000740  4410              ADD      r0,r0,r2              ;616
000742  f3c02207          UBFX     r2,r0,#8,#8           ;616
000746  4bc6              LDR      r3,|L1.2656|
000748  b2c0              UXTB     r0,r0                 ;616
00074a  7229              STRB     r1,[r5,#8]            ;616
00074c  5c1b              LDRB     r3,[r3,r0]            ;616
00074e  4071              EORS     r1,r1,r6              ;616
000750  431a              ORRS     r2,r2,r3              ;616
000752  ea800306          EOR      r3,r0,r6              ;616
000756  ea230101          BIC      r1,r3,r1              ;616
00075a  f0110180          ANDS     r1,r1,#0x80           ;616
00075e  d0db              BEQ      |L1.1816|
000760  f000b908          B.W      |L1.2420|
000764  0b01              LSRS     r1,r0,#12             ;617
000766  f8581021          LDR      r1,[r8,r1,LSL #2]     ;617
00076a  4788              BLX      r1                    ;617
00076c  4601              MOV      r1,r0                 ;617
00076e  7228              STRB     r0,[r5,#8]            ;617
000770  1c60              ADDS     r0,r4,#1              ;617
000772  b284              UXTH     r4,r0                 ;617
000774  1870              ADDS     r0,r6,r1              ;617
000776  f0070201          AND      r2,r7,#1              ;617
00077a  4410              ADD      r0,r0,r2              ;617
00077c  f3c02207          UBFX     r2,r0,#8,#8           ;617
000780  4bb7              LDR      r3,|L1.2656|
000782  b2c0              UXTB     r0,r0                 ;617
000784  4071              EORS     r1,r1,r6              ;617
000786  5c1b              LDRB     r3,[r3,r0]            ;617
000788  431a              ORRS     r2,r2,r3              ;617
00078a  ea800306          EOR      r3,r0,r6              ;617
00078e  ea230101          BIC      r1,r3,r1              ;617
000792  f0110180          ANDS     r1,r1,#0x80           ;617
000796  d0bf              BEQ      |L1.1816|
000798  e0ec              B        |L1.2420|
00079a  49b3              LDR      r1,|L1.2664|
00079c  0b02              LSRS     r2,r0,#12             ;618
00079e  f8511022          LDR      r1,[r1,r2,LSL #2]     ;618
0007a2  4788              BLX      r1                    ;618
0007a4  1c61              ADDS     r1,r4,#1              ;618
0007a6  4680              MOV      r8,r0                 ;618
0007a8  b288              UXTH     r0,r1                 ;618
0007aa  f3c13203          UBFX     r2,r1,#12,#4          ;618
0007ae  49ae              LDR      r1,|L1.2664|
0007b0  f8511022          LDR      r1,[r1,r2,LSL #2]     ;618
0007b4  4788              BLX      r1                    ;618
0007b6  ea482000          ORR      r0,r8,r0,LSL #8       ;618
0007ba  49ab              LDR      r1,|L1.2664|
0007bc  0b02              LSRS     r2,r0,#12             ;618
0007be  f8511022          LDR      r1,[r1,r2,LSL #2]     ;618
0007c2  4788              BLX      r1                    ;618
0007c4  4601              MOV      r1,r0                 ;618
0007c6  7228              STRB     r0,[r5,#8]            ;618
0007c8  1ca0              ADDS     r0,r4,#2              ;618
0007ca  b284              UXTH     r4,r0                 ;618
0007cc  1870              ADDS     r0,r6,r1              ;618
0007ce  f0070201          AND      r2,r7,#1              ;618
0007d2  4410              ADD      r0,r0,r2              ;618
0007d4  f3c02207          UBFX     r2,r0,#8,#8           ;618
0007d8  4ba1              LDR      r3,|L1.2656|
0007da  b2c0              UXTB     r0,r0                 ;618
0007dc  4071              EORS     r1,r1,r6              ;618
0007de  5c1b              LDRB     r3,[r3,r0]            ;618
0007e0  431a              ORRS     r2,r2,r3              ;618
0007e2  ea800306          EOR      r3,r0,r6              ;618
0007e6  ea230101          BIC      r1,r3,r1              ;618
0007ea  f0110180          ANDS     r1,r1,#0x80           ;618
0007ee  d093              BEQ      |L1.1816|
0007f0  e0c0              B        |L1.2420|
0007f2  0b01              LSRS     r1,r0,#12             ;619
0007f4  f8581021          LDR      r1,[r8,r1,LSL #2]     ;619
0007f8  4788              BLX      r1                    ;619
0007fa  499a              LDR      r1,|L1.2660|
0007fc  7228              STRB     r0,[r5,#8]            ;619
0007fe  5c0a              LDRB     r2,[r1,r0]            ;619
000800  1c40              ADDS     r0,r0,#1              ;619
000802  fa51f080          UXTAB    r0,r1,r0              ;619
000806  7800              LDRB     r0,[r0,#0]            ;619
000808  ea422100          ORR      r1,r2,r0,LSL #8       ;619
00080c  1c60              ADDS     r0,r4,#1              ;619
00080e  b284              UXTH     r4,r0                 ;619
000810  eb01000a          ADD      r0,r1,r10             ;619
000814  b280              UXTH     r0,r0                 ;619
000816  0a02              LSRS     r2,r0,#8              ;619
000818  0a09              LSRS     r1,r1,#8              ;619
00081a  428a              CMP      r2,r1                 ;619
00081c  d002              BEQ      |L1.2084|
00081e  6929              LDR      r1,[r5,#0x10]         ;619  ; nCPUCycle
000820  1c49              ADDS     r1,r1,#1              ;619
000822  6129              STR      r1,[r5,#0x10]         ;619  ; nCPUCycle
                  |L1.2084|
000824  0b01              LSRS     r1,r0,#12             ;619
000826  f8581021          LDR      r1,[r8,r1,LSL #2]     ;619
00082a  4788              BLX      r1                    ;619
00082c  4601              MOV      r1,r0                 ;619
00082e  7228              STRB     r0,[r5,#8]            ;619
000830  1870              ADDS     r0,r6,r1              ;619
000832  f0070201          AND      r2,r7,#1              ;619
000836  4410              ADD      r0,r0,r2              ;619
000838  f3c02207          UBFX     r2,r0,#8,#8           ;619
00083c  4b88              LDR      r3,|L1.2656|
00083e  b2c0              UXTB     r0,r0                 ;619
000840  4071              EORS     r1,r1,r6              ;619
000842  5c1b              LDRB     r3,[r3,r0]            ;619
000844  431a              ORRS     r2,r2,r3              ;619
000846  ea800306          EOR      r3,r0,r6              ;619
00084a  ea230101          BIC      r1,r3,r1              ;619
00084e  f0110180          ANDS     r1,r1,#0x80           ;619
000852  f43faf61          BEQ      |L1.1816|
000856  e08d              B        |L1.2420|
000858  0b01              LSRS     r1,r0,#12             ;620
00085a  f8581021          LDR      r1,[r8,r1,LSL #2]     ;620
00085e  4788              BLX      r1                    ;620
000860  4448              ADD      r0,r0,r9              ;620
000862  4980              LDR      r1,|L1.2660|
000864  b2c0              UXTB     r0,r0                 ;620
000866  f0070201          AND      r2,r7,#1              ;620
00086a  5c09              LDRB     r1,[r1,r0]            ;620
00086c  1c60              ADDS     r0,r4,#1              ;620
00086e  b284              UXTH     r4,r0                 ;620
000870  1870              ADDS     r0,r6,r1              ;620
000872  4410              ADD      r0,r0,r2              ;620
000874  f3c02207          UBFX     r2,r0,#8,#8           ;620
000878  4b79              LDR      r3,|L1.2656|
00087a  b2c0              UXTB     r0,r0                 ;620
00087c  7229              STRB     r1,[r5,#8]            ;620
00087e  5c1b              LDRB     r3,[r3,r0]            ;620
000880  4071              EORS     r1,r1,r6              ;620
000882  431a              ORRS     r2,r2,r3              ;620
000884  ea800306          EOR      r3,r0,r6              ;620
000888  ea230101          BIC      r1,r3,r1              ;620
00088c  f0110180          ANDS     r1,r1,#0x80           ;620
000890  f43faf42          BEQ      |L1.1816|
000894  e06e              B        |L1.2420|
000896  4974              LDR      r1,|L1.2664|
000898  0b02              LSRS     r2,r0,#12             ;621
00089a  f8511022          LDR      r1,[r1,r2,LSL #2]     ;621
00089e  4788              BLX      r1                    ;621
0008a0  1c61              ADDS     r1,r4,#1              ;621
0008a2  4680              MOV      r8,r0                 ;621
0008a4  b288              UXTH     r0,r1                 ;621
0008a6  f3c13203          UBFX     r2,r1,#12,#4          ;621
0008aa  496f              LDR      r1,|L1.2664|
0008ac  f8511022          LDR      r1,[r1,r2,LSL #2]     ;621
0008b0  4788              BLX      r1                    ;621
0008b2  ea482100          ORR      r1,r8,r0,LSL #8       ;621
0008b6  eb01000a          ADD      r0,r1,r10             ;621
0008ba  1ca2              ADDS     r2,r4,#2              ;621
0008bc  b280              UXTH     r0,r0                 ;621
0008be  b294              UXTH     r4,r2                 ;621
0008c0  f3c12107          UBFX     r1,r1,#8,#8           ;621
0008c4  0a02              LSRS     r2,r0,#8              ;621
0008c6  4291              CMP      r1,r2                 ;621
0008c8  d002              BEQ      |L1.2256|
0008ca  6929              LDR      r1,[r5,#0x10]         ;621  ; nCPUCycle
0008cc  1c49              ADDS     r1,r1,#1              ;621
0008ce  6129              STR      r1,[r5,#0x10]         ;621  ; nCPUCycle
                  |L1.2256|
0008d0  4965              LDR      r1,|L1.2664|
0008d2  0b02              LSRS     r2,r0,#12             ;621
0008d4  f8511022          LDR      r1,[r1,r2,LSL #2]     ;621
0008d8  4788              BLX      r1                    ;621
0008da  4601              MOV      r1,r0                 ;621
0008dc  7228              STRB     r0,[r5,#8]            ;621
0008de  1870              ADDS     r0,r6,r1              ;621
0008e0  f0070201          AND      r2,r7,#1              ;621
0008e4  4410              ADD      r0,r0,r2              ;621
0008e6  f3c02207          UBFX     r2,r0,#8,#8           ;621
0008ea  4b5d              LDR      r3,|L1.2656|
0008ec  b2c0              UXTB     r0,r0                 ;621
0008ee  4071              EORS     r1,r1,r6              ;621
0008f0  5c1b              LDRB     r3,[r3,r0]            ;621
0008f2  431a              ORRS     r2,r2,r3              ;621
0008f4  ea800306          EOR      r3,r0,r6              ;621
0008f8  ea230101          BIC      r1,r3,r1              ;621
0008fc  f0110180          ANDS     r1,r1,#0x80           ;621
000900  f43faf0a          BEQ      |L1.1816|
000904  e036              B        |L1.2420|
000906  4958              LDR      r1,|L1.2664|
000908  0b02              LSRS     r2,r0,#12             ;622
00090a  f8511022          LDR      r1,[r1,r2,LSL #2]     ;622
00090e  4788              BLX      r1                    ;622
000910  1c61              ADDS     r1,r4,#1              ;622
000912  4680              MOV      r8,r0                 ;622
000914  b288              UXTH     r0,r1                 ;622
000916  f3c13203          UBFX     r2,r1,#12,#4          ;622
00091a  4953              LDR      r1,|L1.2664|
00091c  f8511022          LDR      r1,[r1,r2,LSL #2]     ;622
000920  4788              BLX      r1                    ;622
000922  ea482100          ORR      r1,r8,r0,LSL #8       ;622
000926  eb010009          ADD      r0,r1,r9              ;622
00092a  1ca2              ADDS     r2,r4,#2              ;622
00092c  b280              UXTH     r0,r0                 ;622
00092e  b294              UXTH     r4,r2                 ;622
000930  f3c12107          UBFX     r1,r1,#8,#8           ;622
000934  0a02              LSRS     r2,r0,#8              ;622
000936  4291              CMP      r1,r2                 ;622
000938  d002              BEQ      |L1.2368|
00093a  6929              LDR      r1,[r5,#0x10]         ;622  ; nCPUCycle
00093c  1c49              ADDS     r1,r1,#1              ;622
00093e  6129              STR      r1,[r5,#0x10]         ;622  ; nCPUCycle
                  |L1.2368|
000940  4949              LDR      r1,|L1.2664|
000942  0b02              LSRS     r2,r0,#12             ;622
000944  f8511022          LDR      r1,[r1,r2,LSL #2]     ;622
000948  4788              BLX      r1                    ;622
00094a  4601              MOV      r1,r0                 ;622
00094c  7228              STRB     r0,[r5,#8]            ;622
00094e  1870              ADDS     r0,r6,r1              ;622
000950  f0070201          AND      r2,r7,#1              ;622
000954  4410              ADD      r0,r0,r2              ;622
000956  f3c02207          UBFX     r2,r0,#8,#8           ;622
00095a  4b41              LDR      r3,|L1.2656|
00095c  b2c0              UXTB     r0,r0                 ;622
00095e  4071              EORS     r1,r1,r6              ;622
000960  5c1b              LDRB     r3,[r3,r0]            ;622
000962  431a              ORRS     r2,r2,r3              ;622
000964  ea800306          EOR      r3,r0,r6              ;622
000968  ea230101          BIC      r1,r3,r1              ;622
00096c  f0110180          ANDS     r1,r1,#0x80           ;622
000970  f43faed2          BEQ      |L1.1816|
                  |L1.2420|
000974  2140              MOVS     r1,#0x40              ;622
000976  e6cf              B        |L1.1816|
000978  0b01              LSRS     r1,r0,#12             ;625
00097a  f8581021          LDR      r1,[r8,r1,LSL #2]     ;625
00097e  4788              BLX      r1                    ;625
000980  1c61              ADDS     r1,r4,#1              ;625
000982  b28c              UXTH     r4,r1                 ;625
000984  4448              ADD      r0,r0,r9              ;625
000986  4937              LDR      r1,|L1.2660|
000988  b2c0              UXTB     r0,r0                 ;625
00098a  5c0a              LDRB     r2,[r1,r0]            ;625
00098c  1c40              ADDS     r0,r0,#1              ;625
00098e  fa51f080          UXTAB    r0,r1,r0              ;625
000992  7800              LDRB     r0,[r0,#0]            ;625
000994  ea422000          ORR      r0,r2,r0,LSL #8       ;625
000998  e056              B        |L1.2632|
00099a  0b01              LSRS     r1,r0,#12             ;626
00099c  f8581021          LDR      r1,[r8,r1,LSL #2]     ;626
0009a0  4788              BLX      r1                    ;626
0009a2  4930              LDR      r1,|L1.2660|
0009a4  b280              UXTH     r0,r0                 ;626
0009a6  5c08              LDRB     r0,[r1,r0]            ;626
0009a8  1c61              ADDS     r1,r4,#1              ;626
0009aa  b28c              UXTH     r4,r1                 ;626
0009ac  492c              LDR      r1,|L1.2656|
0009ae  7228              STRB     r0,[r5,#8]            ;626
0009b0  4006              ANDS     r6,r6,r0              ;626
0009b2  f0270082          BIC      r0,r7,#0x82           ;626
0009b6  5d89              LDRB     r1,[r1,r6]            ;626
0009b8  f002bf1e          B.W      |L1.14328|
0009bc  0b01              LSRS     r1,r0,#12             ;627
0009be  f8581021          LDR      r1,[r8,r1,LSL #2]     ;627
0009c2  4788              BLX      r1                    ;627
0009c4  1c61              ADDS     r1,r4,#1              ;627
0009c6  b28c              UXTH     r4,r1                 ;627
0009c8  4925              LDR      r1,|L1.2656|
0009ca  7228              STRB     r0,[r5,#8]            ;627
0009cc  4006              ANDS     r6,r6,r0              ;627
0009ce  f0270082          BIC      r0,r7,#0x82           ;627
0009d2  5d89              LDRB     r1,[r1,r6]            ;627
0009d4  f002bf10          B.W      |L1.14328|
0009d8  4923              LDR      r1,|L1.2664|
0009da  0b02              LSRS     r2,r0,#12             ;628
0009dc  f8511022          LDR      r1,[r1,r2,LSL #2]     ;628
0009e0  4788              BLX      r1                    ;628
0009e2  1c61              ADDS     r1,r4,#1              ;628
0009e4  4680              MOV      r8,r0                 ;628
0009e6  b288              UXTH     r0,r1                 ;628
0009e8  f3c13203          UBFX     r2,r1,#12,#4          ;628
0009ec  491e              LDR      r1,|L1.2664|
0009ee  f8511022          LDR      r1,[r1,r2,LSL #2]     ;628
0009f2  4788              BLX      r1                    ;628
0009f4  ea482000          ORR      r0,r8,r0,LSL #8       ;628
0009f8  491b              LDR      r1,|L1.2664|
0009fa  0b02              LSRS     r2,r0,#12             ;628
0009fc  f8511022          LDR      r1,[r1,r2,LSL #2]     ;628
000a00  4788              BLX      r1                    ;628
000a02  1ca1              ADDS     r1,r4,#2              ;628
000a04  b28c              UXTH     r4,r1                 ;628
000a06  4916              LDR      r1,|L1.2656|
000a08  7228              STRB     r0,[r5,#8]            ;628
000a0a  4006              ANDS     r6,r6,r0              ;628
000a0c  f0270082          BIC      r0,r7,#0x82           ;628
000a10  5d89              LDRB     r1,[r1,r6]            ;628
000a12  f002bef1          B.W      |L1.14328|
000a16  0b01              LSRS     r1,r0,#12             ;629
000a18  f8581021          LDR      r1,[r8,r1,LSL #2]     ;629
000a1c  4788              BLX      r1                    ;629
000a1e  4911              LDR      r1,|L1.2660|
000a20  7228              STRB     r0,[r5,#8]            ;629
000a22  5c0a              LDRB     r2,[r1,r0]            ;629
000a24  1c40              ADDS     r0,r0,#1              ;629
000a26  fa51f080          UXTAB    r0,r1,r0              ;629
000a2a  7800              LDRB     r0,[r0,#0]            ;629
000a2c  ea422100          ORR      r1,r2,r0,LSL #8       ;629
000a30  1c60              ADDS     r0,r4,#1              ;629
000a32  b284              UXTH     r4,r0                 ;629
000a34  eb01000a          ADD      r0,r1,r10             ;629
000a38  b280              UXTH     r0,r0                 ;629
000a3a  0a02              LSRS     r2,r0,#8              ;629
000a3c  0a09              LSRS     r1,r1,#8              ;629
000a3e  428a              CMP      r2,r1                 ;629
000a40  d002              BEQ      |L1.2632|
000a42  6929              LDR      r1,[r5,#0x10]         ;629  ; nCPUCycle
000a44  1c49              ADDS     r1,r1,#1              ;629
000a46  6129              STR      r1,[r5,#0x10]         ;629  ; nCPUCycle
                  |L1.2632|
000a48  0b01              LSRS     r1,r0,#12             ;629
000a4a  f8581021          LDR      r1,[r8,r1,LSL #2]     ;629
000a4e  4788              BLX      r1                    ;629
000a50  4903              LDR      r1,|L1.2656|
000a52  7228              STRB     r0,[r5,#8]            ;629
000a54  4006              ANDS     r6,r6,r0              ;629
000a56  f0270082          BIC      r0,r7,#0x82           ;629
000a5a  5d89              LDRB     r1,[r1,r6]            ;629
000a5c  f002becc          B.W      |L1.14328|
                  |L1.2656|
                          DCD      ||.constdata||+0x100
                  |L1.2660|
                          DCD      ||.bss||
                  |L1.2664|
                          DCD      ||.bss||+0x800
000a6c  0b01              LSRS     r1,r0,#12             ;630
000a6e  f8581021          LDR      r1,[r8,r1,LSL #2]     ;630
000a72  4788              BLX      r1                    ;630
000a74  4448              ADD      r0,r0,r9              ;630
000a76  49ff              LDR      r1,|L1.3700|
000a78  b2c0              UXTB     r0,r0                 ;630
000a7a  5c08              LDRB     r0,[r1,r0]            ;630
000a7c  1c61              ADDS     r1,r4,#1              ;630
000a7e  b28c              UXTH     r4,r1                 ;630
000a80  49fd              LDR      r1,|L1.3704|
000a82  7228              STRB     r0,[r5,#8]            ;630
000a84  4006              ANDS     r6,r6,r0              ;630
000a86  f0270082          BIC      r0,r7,#0x82           ;630
000a8a  5d89              LDRB     r1,[r1,r6]            ;630
000a8c  f002beb4          B.W      |L1.14328|
000a90  49fa              LDR      r1,|L1.3708|
000a92  0b02              LSRS     r2,r0,#12             ;631
000a94  f8511022          LDR      r1,[r1,r2,LSL #2]     ;631
000a98  4788              BLX      r1                    ;631
000a9a  1c61              ADDS     r1,r4,#1              ;631
000a9c  4680              MOV      r8,r0                 ;631
000a9e  b288              UXTH     r0,r1                 ;631
000aa0  f3c13203          UBFX     r2,r1,#12,#4          ;631
000aa4  49f5              LDR      r1,|L1.3708|
000aa6  f8511022          LDR      r1,[r1,r2,LSL #2]     ;631
000aaa  4788              BLX      r1                    ;631
000aac  ea482100          ORR      r1,r8,r0,LSL #8       ;631
000ab0  eb01000a          ADD      r0,r1,r10             ;631
000ab4  1ca2              ADDS     r2,r4,#2              ;631
000ab6  b280              UXTH     r0,r0                 ;631
000ab8  b294              UXTH     r4,r2                 ;631
000aba  f3c12107          UBFX     r1,r1,#8,#8           ;631
000abe  0a02              LSRS     r2,r0,#8              ;631
000ac0  4291              CMP      r1,r2                 ;631
000ac2  d126              BNE      |L1.2834|
                  |L1.2756|
000ac4  49ed              LDR      r1,|L1.3708|
000ac6  0b02              LSRS     r2,r0,#12             ;631
000ac8  f8511022          LDR      r1,[r1,r2,LSL #2]     ;631
000acc  4788              BLX      r1                    ;631
000ace  49ea              LDR      r1,|L1.3704|
000ad0  7228              STRB     r0,[r5,#8]            ;631
000ad2  4006              ANDS     r6,r6,r0              ;631
000ad4  f0270082          BIC      r0,r7,#0x82           ;631
000ad8  5d89              LDRB     r1,[r1,r6]            ;631
000ada  f002be8d          B.W      |L1.14328|
000ade  49e7              LDR      r1,|L1.3708|
000ae0  0b02              LSRS     r2,r0,#12             ;632
000ae2  f8511022          LDR      r1,[r1,r2,LSL #2]     ;632
000ae6  4788              BLX      r1                    ;632
000ae8  1c61              ADDS     r1,r4,#1              ;632
000aea  4680              MOV      r8,r0                 ;632
000aec  b288              UXTH     r0,r1                 ;632
000aee  f3c13203          UBFX     r2,r1,#12,#4          ;632
000af2  49e2              LDR      r1,|L1.3708|
000af4  f8511022          LDR      r1,[r1,r2,LSL #2]     ;632
000af8  4788              BLX      r1                    ;632
000afa  ea482100          ORR      r1,r8,r0,LSL #8       ;632
000afe  eb010009          ADD      r0,r1,r9              ;632
000b02  1ca2              ADDS     r2,r4,#2              ;632
000b04  b280              UXTH     r0,r0                 ;632
000b06  b294              UXTH     r4,r2                 ;632
000b08  f3c12107          UBFX     r1,r1,#8,#8           ;632
000b0c  0a02              LSRS     r2,r0,#8              ;632
000b0e  4291              CMP      r1,r2                 ;632
000b10  d0d8              BEQ      |L1.2756|
                  |L1.2834|
000b12  6929              LDR      r1,[r5,#0x10]         ;632  ; nCPUCycle
000b14  1c49              ADDS     r1,r1,#1              ;632
000b16  6129              STR      r1,[r5,#0x10]         ;632  ; nCPUCycle
000b18  e7d4              B        |L1.2756|
000b1a  0070              LSLS     r0,r6,#1              ;635
000b1c  f3c02107          UBFX     r1,r0,#8,#8           ;635
000b20  b2c6              UXTB     r6,r0                 ;635
000b22  48d5              LDR      r0,|L1.3704|
000b24  5d80              LDRB     r0,[r0,r6]            ;635
000b26  4308              ORRS     r0,r0,r1              ;635
000b28  f0270183          BIC      r1,r7,#0x83           ;635
000b2c  f002be64          B.W      |L1.14328|
000b30  0b01              LSRS     r1,r0,#12             ;636
000b32  f8581021          LDR      r1,[r8,r1,LSL #2]     ;636
000b36  4788              BLX      r1                    ;636
000b38  4601              MOV      r1,r0                 ;636
000b3a  4ace              LDR      r2,|L1.3700|
000b3c  1c60              ADDS     r0,r4,#1              ;636
000b3e  b284              UXTH     r4,r0                 ;636
000b40  5c50              LDRB     r0,[r2,r1]            ;636
000b42  f8dfc334          LDR      r12,|L1.3704|
000b46  0040              LSLS     r0,r0,#1              ;636
000b48  0a03              LSRS     r3,r0,#8              ;636
000b4a  b2c0              UXTB     r0,r0                 ;636
000b4c  f81cc000          LDRB     r12,[r12,r0]          ;636
000b50  7228              STRB     r0,[r5,#8]            ;636
000b52  ea43030c          ORR      r3,r3,r12             ;636
000b56  f0270c83          BIC      r12,r7,#0x83          ;636
000b5a  ea43070c          ORR      r7,r3,r12             ;636
000b5e  f000bc38          B.W      |L1.5074|
000b62  49c6              LDR      r1,|L1.3708|
000b64  0b02              LSRS     r2,r0,#12             ;637
000b66  f8511022          LDR      r1,[r1,r2,LSL #2]     ;637
000b6a  4788              BLX      r1                    ;637
000b6c  1c61              ADDS     r1,r4,#1              ;637
000b6e  4680              MOV      r8,r0                 ;637
000b70  b288              UXTH     r0,r1                 ;637
000b72  f3c13203          UBFX     r2,r1,#12,#4          ;637
000b76  49c1              LDR      r1,|L1.3708|
000b78  f8511022          LDR      r1,[r1,r2,LSL #2]     ;637
000b7c  4788              BLX      r1                    ;637
000b7e  1ca1              ADDS     r1,r4,#2              ;637
000b80  b28c              UXTH     r4,r1                 ;637
000b82  ea482000          ORR      r0,r8,r0,LSL #8       ;637
000b86  49bd              LDR      r1,|L1.3708|
000b88  0b02              LSRS     r2,r0,#12             ;637
000b8a  4680              MOV      r8,r0                 ;637
000b8c  f8511022          LDR      r1,[r1,r2,LSL #2]     ;637
000b90  4788              BLX      r1                    ;637
000b92  0040              LSLS     r0,r0,#1              ;637
000b94  f3c02207          UBFX     r2,r0,#8,#8           ;637
000b98  b2c1              UXTB     r1,r0                 ;637
000b9a  48b7              LDR      r0,|L1.3704|
000b9c  4bb8              LDR      r3,|L1.3712|
000b9e  5c40              LDRB     r0,[r0,r1]            ;637
000ba0  7229              STRB     r1,[r5,#8]            ;637
000ba2  4310              ORRS     r0,r0,r2              ;637
000ba4  f0270283          BIC      r2,r7,#0x83           ;637
000ba8  ea400702          ORR      r7,r0,r2              ;637
000bac  fa1ff088          UXTH     r0,r8                 ;637
000bb0  0b02              LSRS     r2,r0,#12             ;637
000bb2  f8532022          LDR      r2,[r3,r2,LSL #2]     ;637
000bb6  f002bee8          B.W      |L1.14730|
000bba  0b01              LSRS     r1,r0,#12             ;638
000bbc  f8581021          LDR      r1,[r8,r1,LSL #2]     ;638
000bc0  4788              BLX      r1                    ;638
000bc2  eb000109          ADD      r1,r0,r9              ;638
000bc6  f3610007          BFI      r0,r1,#0,#8           ;638
000bca  1c61              ADDS     r1,r4,#1              ;638
000bcc  b28c              UXTH     r4,r1                 ;638
000bce  4aa9              LDR      r2,|L1.3700|
000bd0  b281              UXTH     r1,r0                 ;638
000bd2  f8dfc2a4          LDR      r12,|L1.3704|
000bd6  5c50              LDRB     r0,[r2,r1]            ;638
000bd8  0040              LSLS     r0,r0,#1              ;638
000bda  0a03              LSRS     r3,r0,#8              ;638
000bdc  b2c0              UXTB     r0,r0                 ;638
000bde  f81cc000          LDRB     r12,[r12,r0]          ;638
000be2  7228              STRB     r0,[r5,#8]            ;638
000be4  ea43030c          ORR      r3,r3,r12             ;638
000be8  f0270c83          BIC      r12,r7,#0x83          ;638
000bec  ea43070c          ORR      r7,r3,r12             ;638
000bf0  f000bbef          B.W      |L1.5074|
000bf4  49a1              LDR      r1,|L1.3708|
000bf6  0b02              LSRS     r2,r0,#12             ;639
000bf8  f8511022          LDR      r1,[r1,r2,LSL #2]     ;639
000bfc  4788              BLX      r1                    ;639
000bfe  1c61              ADDS     r1,r4,#1              ;639
000c00  4680              MOV      r8,r0                 ;639
000c02  b288              UXTH     r0,r1                 ;639
000c04  f3c13203          UBFX     r2,r1,#12,#4          ;639
000c08  499c              LDR      r1,|L1.3708|
000c0a  f8511022          LDR      r1,[r1,r2,LSL #2]     ;639
000c0e  4788              BLX      r1                    ;639
000c10  ea482000          ORR      r0,r8,r0,LSL #8       ;639
000c14  1ca1              ADDS     r1,r4,#2              ;639
000c16  b28c              UXTH     r4,r1                 ;639
000c18  4448              ADD      r0,r0,r9              ;639
000c1a  b280              UXTH     r0,r0                 ;639
000c1c  4997              LDR      r1,|L1.3708|
000c1e  0b02              LSRS     r2,r0,#12             ;639
000c20  4680              MOV      r8,r0                 ;639
000c22  f8511022          LDR      r1,[r1,r2,LSL #2]     ;639
000c26  4788              BLX      r1                    ;639
000c28  0040              LSLS     r0,r0,#1              ;639
000c2a  f3c02207          UBFX     r2,r0,#8,#8           ;639
000c2e  b2c1              UXTB     r1,r0                 ;639
000c30  4891              LDR      r0,|L1.3704|
000c32  4b93              LDR      r3,|L1.3712|
000c34  5c40              LDRB     r0,[r0,r1]            ;639
000c36  7229              STRB     r1,[r5,#8]            ;639
000c38  4310              ORRS     r0,r0,r2              ;639
000c3a  f0270283          BIC      r2,r7,#0x83           ;639
000c3e  ea400702          ORR      r7,r0,r2              ;639
000c42  ea4f3218          LSR      r2,r8,#12             ;639
000c46  4640              MOV      r0,r8                 ;639
000c48  f8532022          LDR      r2,[r3,r2,LSL #2]     ;639
000c4c  f002be9d          B.W      |L1.14730|
000c50  0b01              LSRS     r1,r0,#12             ;642
000c52  f8581021          LDR      r1,[r8,r1,LSL #2]     ;642
000c56  4788              BLX      r1                    ;642
000c58  4986              LDR      r1,|L1.3700|
000c5a  b280              UXTH     r0,r0                 ;642
000c5c  5c08              LDRB     r0,[r1,r0]            ;642
000c5e  1c61              ADDS     r1,r4,#1              ;642
000c60  b28c              UXTH     r4,r1                 ;642
000c62  f02701c2          BIC      r1,r7,#0xc2           ;642
000c66  f00002c0          AND      r2,r0,#0xc0           ;642
000c6a  4311              ORRS     r1,r1,r2              ;642
000c6c  7228              STRB     r0,[r5,#8]            ;642
000c6e  4206              TST      r6,r0                 ;642
000c70  d11f              BNE      |L1.3250|
000c72  e021              B        |L1.3256|
000c74  4981              LDR      r1,|L1.3708|
000c76  0b02              LSRS     r2,r0,#12             ;643
000c78  f8511022          LDR      r1,[r1,r2,LSL #2]     ;643
000c7c  4788              BLX      r1                    ;643
000c7e  1c61              ADDS     r1,r4,#1              ;643
000c80  4680              MOV      r8,r0                 ;643
000c82  b288              UXTH     r0,r1                 ;643
000c84  f3c13203          UBFX     r2,r1,#12,#4          ;643
000c88  497c              LDR      r1,|L1.3708|
000c8a  f8511022          LDR      r1,[r1,r2,LSL #2]     ;643
000c8e  4788              BLX      r1                    ;643
000c90  ea482000          ORR      r0,r8,r0,LSL #8       ;643
000c94  4979              LDR      r1,|L1.3708|
000c96  0b02              LSRS     r2,r0,#12             ;643
000c98  f8511022          LDR      r1,[r1,r2,LSL #2]     ;643
000c9c  4788              BLX      r1                    ;643
000c9e  1ca1              ADDS     r1,r4,#2              ;643
000ca0  b28c              UXTH     r4,r1                 ;643
000ca2  f02701c2          BIC      r1,r7,#0xc2           ;643
000ca6  f00002c0          AND      r2,r0,#0xc0           ;643
000caa  4311              ORRS     r1,r1,r2              ;643
000cac  7228              STRB     r0,[r5,#8]            ;643
000cae  4206              TST      r6,r0                 ;643
000cb0  d002              BEQ      |L1.3256|
                  |L1.3250|
000cb2  2000              MOVS     r0,#0                 ;643
000cb4  f001b812          B.W      |L1.7388|
                  |L1.3256|
000cb8  2002              MOVS     r0,#2                 ;643
000cba  f001b80f          B.W      |L1.7388|
000cbe  79a9              LDRB     r1,[r5,#6]            ;647  ; bIgnoreBRK
000cc0  2900              CMP      r1,#0                 ;647
000cc2  f0428708          BNE.W    |L1.15062|
000cc6  68e9              LDR      r1,[r5,#0xc]          ;650  ; pStack
000cc8  9b00              LDR      r3,[sp,#0]            ;650
000cca  1c60              ADDS     r0,r4,#1              ;649
000ccc  0a02              LSRS     r2,r0,#8              ;649
000cce  54ca              STRB     r2,[r1,r3]            ;650
000cd0  9a00              LDR      r2,[sp,#0]            ;650
000cd2  1e52              SUBS     r2,r2,#1              ;650
000cd4  b2d2              UXTB     r2,r2                 ;650
000cd6  5488              STRB     r0,[r1,r2]            ;651
000cd8  1e50              SUBS     r0,r2,#1              ;651
000cda  b2c0              UXTB     r0,r0                 ;651
000cdc  f0470230          ORR      r2,r7,#0x30           ;652
000ce0  540a              STRB     r2,[r1,r0]            ;652
000ce2  1e40              SUBS     r0,r0,#1              ;652
000ce4  b2c0              UXTB     r0,r0                 ;652
000ce6  9000              STR      r0,[sp,#0]            ;654
000ce8  f8d8103c          LDR      r1,[r8,#0x3c]         ;654  ; ReadMemory
000cec  f0470704          ORR      r7,r7,#4              ;653
000cf0  f64f70fe          MOV      r0,#0xfffe            ;654
000cf4  4788              BLX      r1                    ;654
000cf6  4604              MOV      r4,r0                 ;654
000cf8  f8d8103c          LDR      r1,[r8,#0x3c]         ;654  ; ReadMemory
000cfc  f64f70ff          MOV      r0,#0xffff            ;654
000d00  4788              BLX      r1                    ;654
000d02  ea442000          ORR      r0,r4,r0,LSL #8       ;654
000d06  0b01              LSRS     r1,r0,#12             ;657
000d08  4604              MOV      r4,r0                 ;654
000d0a  f8581021          LDR      r1,[r8,r1,LSL #2]     ;657
000d0e  4788              BLX      r1                    ;657
000d10  2800              CMP      r0,#0                 ;657
000d12  f04286e0          BNE.W    |L1.15062|
000d16  2001              MOVS     r0,#1                 ;659
000d18  7168              STRB     r0,[r5,#5]            ;659
000d1a  f002bee0          B.W      |L1.15070|
000d1e  0b01              LSRS     r1,r0,#12             ;665
000d20  f8581021          LDR      r1,[r8,r1,LSL #2]     ;665
000d24  4788              BLX      r1                    ;665
000d26  1c61              ADDS     r1,r4,#1              ;665
000d28  b28c              UXTH     r4,r1                 ;665
000d2a  4448              ADD      r0,r0,r9              ;665
000d2c  4951              LDR      r1,|L1.3700|
000d2e  b2c0              UXTB     r0,r0                 ;665
000d30  5c0a              LDRB     r2,[r1,r0]            ;665
000d32  1c40              ADDS     r0,r0,#1              ;665
000d34  fa51f080          UXTAB    r0,r1,r0              ;665
000d38  7800              LDRB     r0,[r0,#0]            ;665
000d3a  ea422000          ORR      r0,r2,r0,LSL #8       ;665
000d3e  0b01              LSRS     r1,r0,#12             ;665
000d40  f8581021          LDR      r1,[r8,r1,LSL #2]     ;665
000d44  4788              BLX      r1                    ;665
000d46  7228              STRB     r0,[r5,#8]            ;665
000d48  1a30              SUBS     r0,r6,r0              ;665
000d4a  b280              UXTH     r0,r0                 ;665
000d4c  f0270183          BIC      r1,r7,#0x83           ;665
000d50  0a02              LSRS     r2,r0,#8              ;665
000d52  f0008161          BEQ.W    |L1.4120|
000d56  f000b95d          B.W      |L1.4116|
                  |L1.3418|
000d5a  4311              ORRS     r1,r1,r2              ;665
000d5c  4a46              LDR      r2,|L1.3704|
000d5e  b2c0              UXTB     r0,r0                 ;665
                  |L1.3424|
000d60  5c10              LDRB     r0,[r2,r0]            ;665
000d62  f000bfbb          B.W      |L1.7388|
000d66  0b01              LSRS     r1,r0,#12             ;666
000d68  f8581021          LDR      r1,[r8,r1,LSL #2]     ;666
000d6c  4788              BLX      r1                    ;666
000d6e  4941              LDR      r1,|L1.3700|
000d70  b280              UXTH     r0,r0                 ;666
000d72  5c08              LDRB     r0,[r1,r0]            ;666
000d74  1c61              ADDS     r1,r4,#1              ;666
000d76  7228              STRB     r0,[r5,#8]            ;666
000d78  1a30              SUBS     r0,r6,r0              ;666
000d7a  b28c              UXTH     r4,r1                 ;666
000d7c  b280              UXTH     r0,r0                 ;666
000d7e  f0270183          BIC      r1,r7,#0x83           ;666
000d82  0a02              LSRS     r2,r0,#8              ;666
000d84  f0008148          BEQ.W    |L1.4120|
000d88  f000b944          B.W      |L1.4116|
000d8c  0b01              LSRS     r1,r0,#12             ;667
000d8e  f8581021          LDR      r1,[r8,r1,LSL #2]     ;667
000d92  4788              BLX      r1                    ;667
000d94  1c61              ADDS     r1,r4,#1              ;667
000d96  7228              STRB     r0,[r5,#8]            ;667
000d98  1a30              SUBS     r0,r6,r0              ;667
000d9a  b28c              UXTH     r4,r1                 ;667
000d9c  b280              UXTH     r0,r0                 ;667
000d9e  f0270183          BIC      r1,r7,#0x83           ;667
000da2  0a02              LSRS     r2,r0,#8              ;667
000da4  d065              BEQ      |L1.3698|
000da6  e135              B        |L1.4116|
000da8  4934              LDR      r1,|L1.3708|
000daa  0b02              LSRS     r2,r0,#12             ;668
000dac  f8511022          LDR      r1,[r1,r2,LSL #2]     ;668
000db0  4788              BLX      r1                    ;668
000db2  1c61              ADDS     r1,r4,#1              ;668
000db4  4680              MOV      r8,r0                 ;668
000db6  b288              UXTH     r0,r1                 ;668
000db8  f3c13203          UBFX     r2,r1,#12,#4          ;668
000dbc  492f              LDR      r1,|L1.3708|
000dbe  f8511022          LDR      r1,[r1,r2,LSL #2]     ;668
000dc2  4788              BLX      r1                    ;668
000dc4  ea482000          ORR      r0,r8,r0,LSL #8       ;668
000dc8  492c              LDR      r1,|L1.3708|
000dca  0b02              LSRS     r2,r0,#12             ;668
000dcc  f8511022          LDR      r1,[r1,r2,LSL #2]     ;668
000dd0  4788              BLX      r1                    ;668
000dd2  1ca1              ADDS     r1,r4,#2              ;668
000dd4  7228              STRB     r0,[r5,#8]            ;668
000dd6  1a30              SUBS     r0,r6,r0              ;668
000dd8  b28c              UXTH     r4,r1                 ;668
000dda  b280              UXTH     r0,r0                 ;668
000ddc  f0270183          BIC      r1,r7,#0x83           ;668
000de0  0a02              LSRS     r2,r0,#8              ;668
000de2  d046              BEQ      |L1.3698|
000de4  e116              B        |L1.4116|
000de6  0b01              LSRS     r1,r0,#12             ;669
000de8  f8581021          LDR      r1,[r8,r1,LSL #2]     ;669
000dec  4788              BLX      r1                    ;669
000dee  4921              LDR      r1,|L1.3700|
000df0  7228              STRB     r0,[r5,#8]            ;669
000df2  5c0a              LDRB     r2,[r1,r0]            ;669
000df4  1c40              ADDS     r0,r0,#1              ;669
000df6  fa51f080          UXTAB    r0,r1,r0              ;669
000dfa  7800              LDRB     r0,[r0,#0]            ;669
000dfc  ea422100          ORR      r1,r2,r0,LSL #8       ;669
000e00  1c60              ADDS     r0,r4,#1              ;669
000e02  b284              UXTH     r4,r0                 ;669
000e04  eb01000a          ADD      r0,r1,r10             ;669
000e08  b280              UXTH     r0,r0                 ;669
000e0a  0a02              LSRS     r2,r0,#8              ;669
000e0c  0a09              LSRS     r1,r1,#8              ;669
000e0e  428a              CMP      r2,r1                 ;669
000e10  d002              BEQ      |L1.3608|
000e12  6929              LDR      r1,[r5,#0x10]         ;669  ; nCPUCycle
000e14  1c49              ADDS     r1,r1,#1              ;669
000e16  6129              STR      r1,[r5,#0x10]         ;669  ; nCPUCycle
                  |L1.3608|
000e18  0b01              LSRS     r1,r0,#12             ;669
000e1a  f8581021          LDR      r1,[r8,r1,LSL #2]     ;669
000e1e  4788              BLX      r1                    ;669
000e20  7228              STRB     r0,[r5,#8]            ;669
000e22  1a30              SUBS     r0,r6,r0              ;669
000e24  b280              UXTH     r0,r0                 ;669
000e26  f0270183          BIC      r1,r7,#0x83           ;669
000e2a  0a02              LSRS     r2,r0,#8              ;669
000e2c  d021              BEQ      |L1.3698|
000e2e  e0f1              B        |L1.4116|
000e30  0b01              LSRS     r1,r0,#12             ;670
000e32  f8581021          LDR      r1,[r8,r1,LSL #2]     ;670
000e36  4788              BLX      r1                    ;670
000e38  4448              ADD      r0,r0,r9              ;670
000e3a  490e              LDR      r1,|L1.3700|
000e3c  b2c0              UXTB     r0,r0                 ;670
000e3e  5c08              LDRB     r0,[r1,r0]            ;670
000e40  1c61              ADDS     r1,r4,#1              ;670
000e42  7228              STRB     r0,[r5,#8]            ;670
000e44  1a30              SUBS     r0,r6,r0              ;670
000e46  b28c              UXTH     r4,r1                 ;670
000e48  b280              UXTH     r0,r0                 ;670
000e4a  f0270183          BIC      r1,r7,#0x83           ;670
000e4e  0a02              LSRS     r2,r0,#8              ;670
000e50  d00f              BEQ      |L1.3698|
000e52  e0df              B        |L1.4116|
000e54  4909              LDR      r1,|L1.3708|
000e56  0b02              LSRS     r2,r0,#12             ;671
000e58  f8511022          LDR      r1,[r1,r2,LSL #2]     ;671
000e5c  4788              BLX      r1                    ;671
000e5e  1c61              ADDS     r1,r4,#1              ;671
000e60  4680              MOV      r8,r0                 ;671
000e62  b288              UXTH     r0,r1                 ;671
000e64  f3c13203          UBFX     r2,r1,#12,#4          ;671
000e68  4904              LDR      r1,|L1.3708|
000e6a  f8511022          LDR      r1,[r1,r2,LSL #2]     ;671
000e6e  4788              BLX      r1                    ;671
000e70  e008              B        |L1.3716|
                  |L1.3698|
000e72  e09d              B        |L1.4016|
                  |L1.3700|
                          DCD      ||.bss||
                  |L1.3704|
                          DCD      ||.constdata||+0x100
                  |L1.3708|
                          DCD      ||.bss||+0x800
                  |L1.3712|
                          DCD      ||.bss||+0x840
                  |L1.3716|
000e84  ea482100          ORR      r1,r8,r0,LSL #8       ;671
000e88  eb01000a          ADD      r0,r1,r10             ;671
000e8c  1ca2              ADDS     r2,r4,#2              ;671
000e8e  b280              UXTH     r0,r0                 ;671
000e90  b294              UXTH     r4,r2                 ;671
000e92  f3c12107          UBFX     r1,r1,#8,#8           ;671
000e96  0a02              LSRS     r2,r0,#8              ;671
000e98  4291              CMP      r1,r2                 ;671
000e9a  d002              BEQ      |L1.3746|
000e9c  6929              LDR      r1,[r5,#0x10]         ;671  ; nCPUCycle
000e9e  1c49              ADDS     r1,r1,#1              ;671
000ea0  6129              STR      r1,[r5,#0x10]         ;671  ; nCPUCycle
                  |L1.3746|
000ea2  49ff              LDR      r1,|L1.4768|
000ea4  0b02              LSRS     r2,r0,#12             ;671
000ea6  f8511022          LDR      r1,[r1,r2,LSL #2]     ;671
000eaa  4788              BLX      r1                    ;671
000eac  7228              STRB     r0,[r5,#8]            ;671
000eae  1a30              SUBS     r0,r6,r0              ;671
000eb0  b280              UXTH     r0,r0                 ;671
000eb2  f0270183          BIC      r1,r7,#0x83           ;671
000eb6  0a02              LSRS     r2,r0,#8              ;671
000eb8  d07a              BEQ      |L1.4016|
000eba  e0ab              B        |L1.4116|
000ebc  49f8              LDR      r1,|L1.4768|
000ebe  0b02              LSRS     r2,r0,#12             ;672
000ec0  f8511022          LDR      r1,[r1,r2,LSL #2]     ;672
000ec4  4788              BLX      r1                    ;672
000ec6  1c61              ADDS     r1,r4,#1              ;672
000ec8  4680              MOV      r8,r0                 ;672
000eca  b288              UXTH     r0,r1                 ;672
000ecc  f3c13203          UBFX     r2,r1,#12,#4          ;672
000ed0  49f3              LDR      r1,|L1.4768|
000ed2  f8511022          LDR      r1,[r1,r2,LSL #2]     ;672
000ed6  4788              BLX      r1                    ;672
000ed8  ea482100          ORR      r1,r8,r0,LSL #8       ;672
000edc  eb010009          ADD      r0,r1,r9              ;672
000ee0  1ca2              ADDS     r2,r4,#2              ;672
000ee2  b280              UXTH     r0,r0                 ;672
000ee4  b294              UXTH     r4,r2                 ;672
000ee6  f3c12107          UBFX     r1,r1,#8,#8           ;672
000eea  0a02              LSRS     r2,r0,#8              ;672
000eec  4291              CMP      r1,r2                 ;672
000eee  d002              BEQ      |L1.3830|
000ef0  6929              LDR      r1,[r5,#0x10]         ;672  ; nCPUCycle
000ef2  1c49              ADDS     r1,r1,#1              ;672
000ef4  6129              STR      r1,[r5,#0x10]         ;672  ; nCPUCycle
                  |L1.3830|
000ef6  49ea              LDR      r1,|L1.4768|
000ef8  0b02              LSRS     r2,r0,#12             ;672
000efa  f8511022          LDR      r1,[r1,r2,LSL #2]     ;672
000efe  4788              BLX      r1                    ;672
000f00  7228              STRB     r0,[r5,#8]            ;672
000f02  1a30              SUBS     r0,r6,r0              ;672
000f04  b280              UXTH     r0,r0                 ;672
000f06  f0270183          BIC      r1,r7,#0x83           ;672
000f0a  0a02              LSRS     r2,r0,#8              ;672
000f0c  d050              BEQ      |L1.4016|
000f0e  e081              B        |L1.4116|
000f10  0b01              LSRS     r1,r0,#12             ;675
000f12  f8581021          LDR      r1,[r8,r1,LSL #2]     ;675
000f16  4788              BLX      r1                    ;675
000f18  7228              STRB     r0,[r5,#8]            ;675
000f1a  1c61              ADDS     r1,r4,#1              ;675
000f1c  eba90000          SUB      r0,r9,r0              ;675
000f20  b28c              UXTH     r4,r1                 ;675
000f22  b280              UXTH     r0,r0                 ;675
000f24  f0270183          BIC      r1,r7,#0x83           ;675
000f28  0a02              LSRS     r2,r0,#8              ;675
000f2a  d075              BEQ      |L1.4120|
000f2c  e072              B        |L1.4116|
000f2e  0b01              LSRS     r1,r0,#12             ;676
000f30  f8581021          LDR      r1,[r8,r1,LSL #2]     ;676
000f34  4788              BLX      r1                    ;676
000f36  49db              LDR      r1,|L1.4772|
000f38  b280              UXTH     r0,r0                 ;676
000f3a  5c08              LDRB     r0,[r1,r0]            ;676
000f3c  7228              STRB     r0,[r5,#8]            ;676
000f3e  1c61              ADDS     r1,r4,#1              ;676
000f40  eba90000          SUB      r0,r9,r0              ;676
000f44  b28c              UXTH     r4,r1                 ;676
000f46  b280              UXTH     r0,r0                 ;676
000f48  f0270183          BIC      r1,r7,#0x83           ;676
000f4c  0a02              LSRS     r2,r0,#8              ;676
000f4e  d063              BEQ      |L1.4120|
000f50  e060              B        |L1.4116|
000f52  49d3              LDR      r1,|L1.4768|
000f54  0b02              LSRS     r2,r0,#12             ;677
000f56  f8511022          LDR      r1,[r1,r2,LSL #2]     ;677
000f5a  4788              BLX      r1                    ;677
000f5c  1c61              ADDS     r1,r4,#1              ;677
000f5e  4680              MOV      r8,r0                 ;677
000f60  b288              UXTH     r0,r1                 ;677
000f62  f3c13203          UBFX     r2,r1,#12,#4          ;677
000f66  49ce              LDR      r1,|L1.4768|
000f68  f8511022          LDR      r1,[r1,r2,LSL #2]     ;677
000f6c  4788              BLX      r1                    ;677
000f6e  ea482000          ORR      r0,r8,r0,LSL #8       ;677
000f72  49cb              LDR      r1,|L1.4768|
000f74  0b02              LSRS     r2,r0,#12             ;677
000f76  f8511022          LDR      r1,[r1,r2,LSL #2]     ;677
000f7a  4788              BLX      r1                    ;677
000f7c  7228              STRB     r0,[r5,#8]            ;677
000f7e  1ca1              ADDS     r1,r4,#2              ;677
000f80  eba90000          SUB      r0,r9,r0              ;677
000f84  b28c              UXTH     r4,r1                 ;677
000f86  b280              UXTH     r0,r0                 ;677
000f88  f0270183          BIC      r1,r7,#0x83           ;677
000f8c  0a02              LSRS     r2,r0,#8              ;677
000f8e  d043              BEQ      |L1.4120|
000f90  e040              B        |L1.4116|
000f92  0b01              LSRS     r1,r0,#12             ;680
000f94  f8581021          LDR      r1,[r8,r1,LSL #2]     ;680
000f98  4788              BLX      r1                    ;680
000f9a  7228              STRB     r0,[r5,#8]            ;680
000f9c  1c61              ADDS     r1,r4,#1              ;680
000f9e  ebaa0000          SUB      r0,r10,r0             ;680
000fa2  b28c              UXTH     r4,r1                 ;680
000fa4  b280              UXTH     r0,r0                 ;680
000fa6  f0270183          BIC      r1,r7,#0x83           ;680
000faa  0a02              LSRS     r2,r0,#8              ;680
000fac  d034              BEQ      |L1.4120|
000fae  e031              B        |L1.4116|
                  |L1.4016|
000fb0  e032              B        |L1.4120|
000fb2  0b01              LSRS     r1,r0,#12             ;681
000fb4  f8581021          LDR      r1,[r8,r1,LSL #2]     ;681
000fb8  4788              BLX      r1                    ;681
000fba  49ba              LDR      r1,|L1.4772|
000fbc  b280              UXTH     r0,r0                 ;681
000fbe  5c08              LDRB     r0,[r1,r0]            ;681
000fc0  7228              STRB     r0,[r5,#8]            ;681
000fc2  1c61              ADDS     r1,r4,#1              ;681
000fc4  ebaa0000          SUB      r0,r10,r0             ;681
000fc8  b28c              UXTH     r4,r1                 ;681
000fca  b280              UXTH     r0,r0                 ;681
000fcc  f0270183          BIC      r1,r7,#0x83           ;681
000fd0  0a02              LSRS     r2,r0,#8              ;681
000fd2  d021              BEQ      |L1.4120|
000fd4  e01e              B        |L1.4116|
000fd6  49b2              LDR      r1,|L1.4768|
000fd8  0b02              LSRS     r2,r0,#12             ;682
000fda  f8511022          LDR      r1,[r1,r2,LSL #2]     ;682
000fde  4788              BLX      r1                    ;682
000fe0  1c61              ADDS     r1,r4,#1              ;682
000fe2  4680              MOV      r8,r0                 ;682
000fe4  b288              UXTH     r0,r1                 ;682
000fe6  f3c13203          UBFX     r2,r1,#12,#4          ;682
000fea  49ad              LDR      r1,|L1.4768|
000fec  f8511022          LDR      r1,[r1,r2,LSL #2]     ;682
000ff0  4788              BLX      r1                    ;682
000ff2  ea482000          ORR      r0,r8,r0,LSL #8       ;682
000ff6  49aa              LDR      r1,|L1.4768|
000ff8  0b02              LSRS     r2,r0,#12             ;682
000ffa  f8511022          LDR      r1,[r1,r2,LSL #2]     ;682
000ffe  4788              BLX      r1                    ;682
001000  7228              STRB     r0,[r5,#8]            ;682
001002  1ca1              ADDS     r1,r4,#2              ;682
001004  ebaa0000          SUB      r0,r10,r0             ;682
001008  b28c              UXTH     r4,r1                 ;682
00100a  b280              UXTH     r0,r0                 ;682
00100c  f0270183          BIC      r1,r7,#0x83           ;682
001010  0a02              LSRS     r2,r0,#8              ;682
001012  d001              BEQ      |L1.4120|
                  |L1.4116|
001014  2200              MOVS     r2,#0                 ;682
001016  e6a0              B        |L1.3418|
                  |L1.4120|
001018  2201              MOVS     r2,#1                 ;682
00101a  e69e              B        |L1.3418|
00101c  f1a90001          SUB      r0,r9,#1              ;685
001020  49a1              LDR      r1,|L1.4776|
001022  f00009ff          AND      r9,r0,#0xff           ;685
001026  f0270082          BIC      r0,r7,#0x82           ;685
00102a  f8111009          LDRB     r1,[r1,r9]            ;685
00102e  f002bbe3          B.W      |L1.14328|
001032  bf00              NOP                            ;686
001034  f1aa0001          SUB      r0,r10,#1             ;686
001038  499b              LDR      r1,|L1.4776|
00103a  f0000aff          AND      r10,r0,#0xff          ;686
00103e  f0270082          BIC      r0,r7,#0x82           ;686
001042  f811100a          LDRB     r1,[r1,r10]           ;686
001046  f002bbd7          B.W      |L1.14328|
00104a  0b01              LSRS     r1,r0,#12             ;687
00104c  f8581021          LDR      r1,[r8,r1,LSL #2]     ;687
001050  4788              BLX      r1                    ;687
001052  4a94              LDR      r2,|L1.4772|
001054  1c61              ADDS     r1,r4,#1              ;687
001056  b28c              UXTH     r4,r1                 ;687
001058  5c11              LDRB     r1,[r2,r0]            ;687
00105a  f8dfc24c          LDR      r12,|L1.4776|
00105e  1e49              SUBS     r1,r1,#1              ;687
001060  b2c9              UXTB     r1,r1                 ;687
001062  7229              STRB     r1,[r5,#8]            ;687
001064  f81cc001          LDRB     r12,[r12,r1]          ;687
001068  f0270382          BIC      r3,r7,#0x82           ;687
00106c  ea43070c          ORR      r7,r3,r12             ;687
001070  f002b8a5          B.W      |L1.12734|
001074  498a              LDR      r1,|L1.4768|
001076  0b02              LSRS     r2,r0,#12             ;688
001078  f8511022          LDR      r1,[r1,r2,LSL #2]     ;688
00107c  4788              BLX      r1                    ;688
00107e  1c61              ADDS     r1,r4,#1              ;688
001080  4680              MOV      r8,r0                 ;688
001082  b288              UXTH     r0,r1                 ;688
001084  f3c13203          UBFX     r2,r1,#12,#4          ;688
001088  4985              LDR      r1,|L1.4768|
00108a  f8511022          LDR      r1,[r1,r2,LSL #2]     ;688
00108e  4788              BLX      r1                    ;688
001090  1ca1              ADDS     r1,r4,#2              ;688
001092  b28c              UXTH     r4,r1                 ;688
001094  ea482000          ORR      r0,r8,r0,LSL #8       ;688
001098  4981              LDR      r1,|L1.4768|
00109a  0b02              LSRS     r2,r0,#12             ;688
00109c  4680              MOV      r8,r0                 ;688
00109e  f8511022          LDR      r1,[r1,r2,LSL #2]     ;688
0010a2  4788              BLX      r1                    ;688
0010a4  1e40              SUBS     r0,r0,#1              ;688
0010a6  4a80              LDR      r2,|L1.4776|
0010a8  b2c1              UXTB     r1,r0                 ;688
0010aa  7229              STRB     r1,[r5,#8]            ;688
0010ac  5c52              LDRB     r2,[r2,r1]            ;688
0010ae  f0270082          BIC      r0,r7,#0x82           ;688
0010b2  ea400702          ORR      r7,r0,r2              ;688
0010b6  fa1ff088          UXTH     r0,r8                 ;688
0010ba  4b7c              LDR      r3,|L1.4780|
0010bc  0b02              LSRS     r2,r0,#12             ;688
0010be  f8532022          LDR      r2,[r3,r2,LSL #2]     ;688
0010c2  f002bc62          B.W      |L1.14730|
0010c6  0b01              LSRS     r1,r0,#12             ;689
0010c8  f8581021          LDR      r1,[r8,r1,LSL #2]     ;689
0010cc  4788              BLX      r1                    ;689
0010ce  eb000109          ADD      r1,r0,r9              ;689
0010d2  f3610007          BFI      r0,r1,#0,#8           ;689
0010d6  1c61              ADDS     r1,r4,#1              ;689
0010d8  b28c              UXTH     r4,r1                 ;689
0010da  4a72              LDR      r2,|L1.4772|
0010dc  b281              UXTH     r1,r0                 ;689
0010de  f8dfc1c8          LDR      r12,|L1.4776|
0010e2  5c50              LDRB     r0,[r2,r1]            ;689
0010e4  f0270382          BIC      r3,r7,#0x82           ;689
0010e8  1e40              SUBS     r0,r0,#1              ;689
0010ea  b2c0              UXTB     r0,r0                 ;689
0010ec  7228              STRB     r0,[r5,#8]            ;689
0010ee  f81cc000          LDRB     r12,[r12,r0]          ;689
0010f2  ea43070c          ORR      r7,r3,r12             ;689
0010f6  e16c              B        |L1.5074|
0010f8  4969              LDR      r1,|L1.4768|
0010fa  0b02              LSRS     r2,r0,#12             ;690
0010fc  f8511022          LDR      r1,[r1,r2,LSL #2]     ;690
001100  4788              BLX      r1                    ;690
001102  1c61              ADDS     r1,r4,#1              ;690
001104  4680              MOV      r8,r0                 ;690
001106  b288              UXTH     r0,r1                 ;690
001108  f3c13203          UBFX     r2,r1,#12,#4          ;690
00110c  4964              LDR      r1,|L1.4768|
00110e  f8511022          LDR      r1,[r1,r2,LSL #2]     ;690
001112  4788              BLX      r1                    ;690
001114  ea482000          ORR      r0,r8,r0,LSL #8       ;690
001118  1ca1              ADDS     r1,r4,#2              ;690
00111a  b28c              UXTH     r4,r1                 ;690
00111c  4448              ADD      r0,r0,r9              ;690
00111e  b280              UXTH     r0,r0                 ;690
001120  495f              LDR      r1,|L1.4768|
001122  0b02              LSRS     r2,r0,#12             ;690
001124  4680              MOV      r8,r0                 ;690
001126  f8511022          LDR      r1,[r1,r2,LSL #2]     ;690
00112a  4788              BLX      r1                    ;690
00112c  1e40              SUBS     r0,r0,#1              ;690
00112e  4a5e              LDR      r2,|L1.4776|
001130  b2c1              UXTB     r1,r0                 ;690
001132  7229              STRB     r1,[r5,#8]            ;690
001134  5c52              LDRB     r2,[r2,r1]            ;690
001136  f0270082          BIC      r0,r7,#0x82           ;690
00113a  ea400702          ORR      r7,r0,r2              ;690
00113e  4b5b              LDR      r3,|L1.4780|
001140  ea4f3218          LSR      r2,r8,#12             ;690
001144  4640              MOV      r0,r8                 ;690
001146  f8532022          LDR      r2,[r3,r2,LSL #2]     ;690
00114a  f002bc1e          B.W      |L1.14730|
00114e  0b01              LSRS     r1,r0,#12             ;693
001150  f8581021          LDR      r1,[r8,r1,LSL #2]     ;693
001154  4788              BLX      r1                    ;693
001156  1c61              ADDS     r1,r4,#1              ;693
001158  b28c              UXTH     r4,r1                 ;693
00115a  4448              ADD      r0,r0,r9              ;693
00115c  4951              LDR      r1,|L1.4772|
00115e  b2c0              UXTB     r0,r0                 ;693
001160  5c0a              LDRB     r2,[r1,r0]            ;693
001162  1c40              ADDS     r0,r0,#1              ;693
001164  fa51f080          UXTAB    r0,r1,r0              ;693
001168  7800              LDRB     r0,[r0,#0]            ;693
00116a  ea422000          ORR      r0,r2,r0,LSL #8       ;693
00116e  e056              B        |L1.4638|
001170  0b01              LSRS     r1,r0,#12             ;694
001172  f8581021          LDR      r1,[r8,r1,LSL #2]     ;694
001176  4788              BLX      r1                    ;694
001178  494a              LDR      r1,|L1.4772|
00117a  b280              UXTH     r0,r0                 ;694
00117c  5c08              LDRB     r0,[r1,r0]            ;694
00117e  1c61              ADDS     r1,r4,#1              ;694
001180  b28c              UXTH     r4,r1                 ;694
001182  4949              LDR      r1,|L1.4776|
001184  7228              STRB     r0,[r5,#8]            ;694
001186  4046              EORS     r6,r6,r0              ;694
001188  f0270082          BIC      r0,r7,#0x82           ;694
00118c  5d89              LDRB     r1,[r1,r6]            ;694
00118e  f002bb33          B.W      |L1.14328|
001192  0b01              LSRS     r1,r0,#12             ;695
001194  f8581021          LDR      r1,[r8,r1,LSL #2]     ;695
001198  4788              BLX      r1                    ;695
00119a  1c61              ADDS     r1,r4,#1              ;695
00119c  b28c              UXTH     r4,r1                 ;695
00119e  4942              LDR      r1,|L1.4776|
0011a0  7228              STRB     r0,[r5,#8]            ;695
0011a2  4046              EORS     r6,r6,r0              ;695
0011a4  f0270082          BIC      r0,r7,#0x82           ;695
0011a8  5d89              LDRB     r1,[r1,r6]            ;695
0011aa  f002bb25          B.W      |L1.14328|
0011ae  493c              LDR      r1,|L1.4768|
0011b0  0b02              LSRS     r2,r0,#12             ;696
0011b2  f8511022          LDR      r1,[r1,r2,LSL #2]     ;696
0011b6  4788              BLX      r1                    ;696
0011b8  1c61              ADDS     r1,r4,#1              ;696
0011ba  4680              MOV      r8,r0                 ;696
0011bc  b288              UXTH     r0,r1                 ;696
0011be  f3c13203          UBFX     r2,r1,#12,#4          ;696
0011c2  4937              LDR      r1,|L1.4768|
0011c4  f8511022          LDR      r1,[r1,r2,LSL #2]     ;696
0011c8  4788              BLX      r1                    ;696
0011ca  ea482000          ORR      r0,r8,r0,LSL #8       ;696
0011ce  4934              LDR      r1,|L1.4768|
0011d0  0b02              LSRS     r2,r0,#12             ;696
0011d2  f8511022          LDR      r1,[r1,r2,LSL #2]     ;696
0011d6  4788              BLX      r1                    ;696
0011d8  1ca1              ADDS     r1,r4,#2              ;696
0011da  b28c              UXTH     r4,r1                 ;696
0011dc  4932              LDR      r1,|L1.4776|
0011de  7228              STRB     r0,[r5,#8]            ;696
0011e0  4046              EORS     r6,r6,r0              ;696
0011e2  f0270082          BIC      r0,r7,#0x82           ;696
0011e6  5d89              LDRB     r1,[r1,r6]            ;696
0011e8  f002bb06          B.W      |L1.14328|
0011ec  0b01              LSRS     r1,r0,#12             ;697
0011ee  f8581021          LDR      r1,[r8,r1,LSL #2]     ;697
0011f2  4788              BLX      r1                    ;697
0011f4  492b              LDR      r1,|L1.4772|
0011f6  7228              STRB     r0,[r5,#8]            ;697
0011f8  5c0a              LDRB     r2,[r1,r0]            ;697
0011fa  1c40              ADDS     r0,r0,#1              ;697
0011fc  fa51f080          UXTAB    r0,r1,r0              ;697
001200  7800              LDRB     r0,[r0,#0]            ;697
001202  ea422100          ORR      r1,r2,r0,LSL #8       ;697
001206  1c60              ADDS     r0,r4,#1              ;697
001208  b284              UXTH     r4,r0                 ;697
00120a  eb01000a          ADD      r0,r1,r10             ;697
00120e  b280              UXTH     r0,r0                 ;697
001210  0a02              LSRS     r2,r0,#8              ;697
001212  0a09              LSRS     r1,r1,#8              ;697
001214  428a              CMP      r2,r1                 ;697
001216  d002              BEQ      |L1.4638|
001218  6929              LDR      r1,[r5,#0x10]         ;697  ; nCPUCycle
00121a  1c49              ADDS     r1,r1,#1              ;697
00121c  6129              STR      r1,[r5,#0x10]         ;697  ; nCPUCycle
                  |L1.4638|
00121e  0b01              LSRS     r1,r0,#12             ;697
001220  f8581021          LDR      r1,[r8,r1,LSL #2]     ;697
001224  4788              BLX      r1                    ;697
001226  4920              LDR      r1,|L1.4776|
001228  7228              STRB     r0,[r5,#8]            ;697
00122a  4046              EORS     r6,r6,r0              ;697
00122c  f0270082          BIC      r0,r7,#0x82           ;697
001230  5d89              LDRB     r1,[r1,r6]            ;697
001232  f002bae1          B.W      |L1.14328|
001236  0b01              LSRS     r1,r0,#12             ;698
001238  f8581021          LDR      r1,[r8,r1,LSL #2]     ;698
00123c  4788              BLX      r1                    ;698
00123e  4448              ADD      r0,r0,r9              ;698
001240  4918              LDR      r1,|L1.4772|
001242  b2c0              UXTB     r0,r0                 ;698
001244  5c08              LDRB     r0,[r1,r0]            ;698
001246  1c61              ADDS     r1,r4,#1              ;698
001248  b28c              UXTH     r4,r1                 ;698
00124a  4917              LDR      r1,|L1.4776|
00124c  7228              STRB     r0,[r5,#8]            ;698
00124e  4046              EORS     r6,r6,r0              ;698
001250  f0270082          BIC      r0,r7,#0x82           ;698
001254  5d89              LDRB     r1,[r1,r6]            ;698
001256  f002bacf          B.W      |L1.14328|
00125a  4911              LDR      r1,|L1.4768|
00125c  0b02              LSRS     r2,r0,#12             ;699
00125e  f8511022          LDR      r1,[r1,r2,LSL #2]     ;699
001262  4788              BLX      r1                    ;699
001264  1c61              ADDS     r1,r4,#1              ;699
001266  4680              MOV      r8,r0                 ;699
001268  b288              UXTH     r0,r1                 ;699
00126a  f3c13203          UBFX     r2,r1,#12,#4          ;699
00126e  490c              LDR      r1,|L1.4768|
001270  f8511022          LDR      r1,[r1,r2,LSL #2]     ;699
001274  4788              BLX      r1                    ;699
001276  ea482100          ORR      r1,r8,r0,LSL #8       ;699
00127a  eb01000a          ADD      r0,r1,r10             ;699
00127e  1ca2              ADDS     r2,r4,#2              ;699
001280  b280              UXTH     r0,r0                 ;699
001282  b294              UXTH     r4,r2                 ;699
001284  f3c12107          UBFX     r1,r1,#8,#8           ;699
001288  0a02              LSRS     r2,r0,#8              ;699
00128a  4291              CMP      r1,r2                 ;699
00128c  d130              BNE      |L1.4848|
                  |L1.4750|
00128e  4904              LDR      r1,|L1.4768|
001290  0b02              LSRS     r2,r0,#12             ;699
001292  f8511022          LDR      r1,[r1,r2,LSL #2]     ;699
001296  4788              BLX      r1                    ;699
001298  7228              STRB     r0,[r5,#8]            ;699
00129a  4046              EORS     r6,r6,r0              ;699
00129c  e008              B        |L1.4784|
00129e  0000              DCW      0x0000
                  |L1.4768|
                          DCD      ||.bss||+0x800
                  |L1.4772|
                          DCD      ||.bss||
                  |L1.4776|
                          DCD      ||.constdata||+0x100
                  |L1.4780|
                          DCD      ||.bss||+0x840
                  |L1.4784|
0012b0  49f9              LDR      r1,|L1.5784|
0012b2  f0270082          BIC      r0,r7,#0x82           ;699
0012b6  5d89              LDRB     r1,[r1,r6]            ;699
0012b8  f002ba9e          B.W      |L1.14328|
0012bc  49f7              LDR      r1,|L1.5788|
0012be  0b02              LSRS     r2,r0,#12             ;700
0012c0  f8511022          LDR      r1,[r1,r2,LSL #2]     ;700
0012c4  4788              BLX      r1                    ;700
0012c6  1c61              ADDS     r1,r4,#1              ;700
0012c8  4680              MOV      r8,r0                 ;700
0012ca  b288              UXTH     r0,r1                 ;700
0012cc  f3c13203          UBFX     r2,r1,#12,#4          ;700
0012d0  49f2              LDR      r1,|L1.5788|
0012d2  f8511022          LDR      r1,[r1,r2,LSL #2]     ;700
0012d6  4788              BLX      r1                    ;700
0012d8  ea482100          ORR      r1,r8,r0,LSL #8       ;700
0012dc  eb010009          ADD      r0,r1,r9              ;700
0012e0  1ca2              ADDS     r2,r4,#2              ;700
0012e2  b280              UXTH     r0,r0                 ;700
0012e4  b294              UXTH     r4,r2                 ;700
0012e6  f3c12107          UBFX     r1,r1,#8,#8           ;700
0012ea  0a02              LSRS     r2,r0,#8              ;700
0012ec  4291              CMP      r1,r2                 ;700
0012ee  d0ce              BEQ      |L1.4750|
                  |L1.4848|
0012f0  6929              LDR      r1,[r5,#0x10]         ;700  ; nCPUCycle
0012f2  1c49              ADDS     r1,r1,#1              ;700
0012f4  6129              STR      r1,[r5,#0x10]         ;700  ; nCPUCycle
0012f6  e7ca              B        |L1.4750|
0012f8  f1090001          ADD      r0,r9,#1              ;703
0012fc  49e6              LDR      r1,|L1.5784|
0012fe  f00009ff          AND      r9,r0,#0xff           ;703
001302  f0270082          BIC      r0,r7,#0x82           ;703
001306  f8111009          LDRB     r1,[r1,r9]            ;703
00130a  f002ba75          B.W      |L1.14328|
00130e  bf00              NOP                            ;704
001310  f10a0001          ADD      r0,r10,#1             ;704
001314  49e0              LDR      r1,|L1.5784|
001316  f0000aff          AND      r10,r0,#0xff          ;704
00131a  f0270082          BIC      r0,r7,#0x82           ;704
00131e  f811100a          LDRB     r1,[r1,r10]           ;704
001322  f002ba69          B.W      |L1.14328|
001326  0b01              LSRS     r1,r0,#12             ;705
001328  f8581021          LDR      r1,[r8,r1,LSL #2]     ;705
00132c  4788              BLX      r1                    ;705
00132e  4adc              LDR      r2,|L1.5792|
001330  1c61              ADDS     r1,r4,#1              ;705
001332  b28c              UXTH     r4,r1                 ;705
001334  5c11              LDRB     r1,[r2,r0]            ;705
001336  f8dfc360          LDR      r12,|L1.5784|
00133a  1c49              ADDS     r1,r1,#1              ;705
00133c  b2c9              UXTB     r1,r1                 ;705
00133e  7229              STRB     r1,[r5,#8]            ;705
001340  f81cc001          LDRB     r12,[r12,r1]          ;705
001344  f0270382          BIC      r3,r7,#0x82           ;705
001348  ea43070c          ORR      r7,r3,r12             ;705
00134c  f001bf37          B.W      |L1.12734|
001350  49d2              LDR      r1,|L1.5788|
001352  0b02              LSRS     r2,r0,#12             ;706
001354  f8511022          LDR      r1,[r1,r2,LSL #2]     ;706
001358  4788              BLX      r1                    ;706
00135a  1c61              ADDS     r1,r4,#1              ;706
00135c  4680              MOV      r8,r0                 ;706
00135e  b288              UXTH     r0,r1                 ;706
001360  f3c13203          UBFX     r2,r1,#12,#4          ;706
001364  49cd              LDR      r1,|L1.5788|
001366  f8511022          LDR      r1,[r1,r2,LSL #2]     ;706
00136a  4788              BLX      r1                    ;706
00136c  1ca1              ADDS     r1,r4,#2              ;706
00136e  b28c              UXTH     r4,r1                 ;706
001370  ea482000          ORR      r0,r8,r0,LSL #8       ;706
001374  49c9              LDR      r1,|L1.5788|
001376  0b02              LSRS     r2,r0,#12             ;706
001378  4680              MOV      r8,r0                 ;706
00137a  f8511022          LDR      r1,[r1,r2,LSL #2]     ;706
00137e  4788              BLX      r1                    ;706
001380  1c40              ADDS     r0,r0,#1              ;706
001382  4ac5              LDR      r2,|L1.5784|
001384  b2c1              UXTB     r1,r0                 ;706
001386  7229              STRB     r1,[r5,#8]            ;706
001388  5c52              LDRB     r2,[r2,r1]            ;706
00138a  f0270082          BIC      r0,r7,#0x82           ;706
00138e  ea400702          ORR      r7,r0,r2              ;706
001392  fa1ff088          UXTH     r0,r8                 ;706
001396  4bc3              LDR      r3,|L1.5796|
001398  0b02              LSRS     r2,r0,#12             ;706
00139a  f8532022          LDR      r2,[r3,r2,LSL #2]     ;706
00139e  f002baf4          B.W      |L1.14730|
0013a2  0b01              LSRS     r1,r0,#12             ;707
0013a4  f8581021          LDR      r1,[r8,r1,LSL #2]     ;707
0013a8  4788              BLX      r1                    ;707
0013aa  eb000109          ADD      r1,r0,r9              ;707
0013ae  f3610007          BFI      r0,r1,#0,#8           ;707
0013b2  1c61              ADDS     r1,r4,#1              ;707
0013b4  b28c              UXTH     r4,r1                 ;707
0013b6  4aba              LDR      r2,|L1.5792|
0013b8  b281              UXTH     r1,r0                 ;707
0013ba  f8dfc2dc          LDR      r12,|L1.5784|
0013be  5c50              LDRB     r0,[r2,r1]            ;707
0013c0  f0270382          BIC      r3,r7,#0x82           ;707
0013c4  1c40              ADDS     r0,r0,#1              ;707
0013c6  b2c0              UXTB     r0,r0                 ;707
0013c8  7228              STRB     r0,[r5,#8]            ;707
0013ca  f81cc000          LDRB     r12,[r12,r0]          ;707
0013ce  ea43070c          ORR      r7,r3,r12             ;707
                  |L1.5074|
0013d2  5450              STRB     r0,[r2,r1]            ;638
0013d4  f002bb7f          B.W      |L1.15062|
0013d8  49b0              LDR      r1,|L1.5788|
0013da  0b02              LSRS     r2,r0,#12             ;708
0013dc  f8511022          LDR      r1,[r1,r2,LSL #2]     ;708
0013e0  4788              BLX      r1                    ;708
0013e2  1c61              ADDS     r1,r4,#1              ;708
0013e4  4680              MOV      r8,r0                 ;708
0013e6  b288              UXTH     r0,r1                 ;708
0013e8  f3c13203          UBFX     r2,r1,#12,#4          ;708
0013ec  49ab              LDR      r1,|L1.5788|
0013ee  f8511022          LDR      r1,[r1,r2,LSL #2]     ;708
0013f2  4788              BLX      r1                    ;708
0013f4  ea482000          ORR      r0,r8,r0,LSL #8       ;708
0013f8  1ca1              ADDS     r1,r4,#2              ;708
0013fa  b28c              UXTH     r4,r1                 ;708
0013fc  4448              ADD      r0,r0,r9              ;708
0013fe  b280              UXTH     r0,r0                 ;708
001400  49a6              LDR      r1,|L1.5788|
001402  0b02              LSRS     r2,r0,#12             ;708
001404  4680              MOV      r8,r0                 ;708
001406  f8511022          LDR      r1,[r1,r2,LSL #2]     ;708
00140a  4788              BLX      r1                    ;708
00140c  1c40              ADDS     r0,r0,#1              ;708
00140e  4aa2              LDR      r2,|L1.5784|
001410  b2c1              UXTB     r1,r0                 ;708
001412  7229              STRB     r1,[r5,#8]            ;708
001414  5c52              LDRB     r2,[r2,r1]            ;708
001416  f0270082          BIC      r0,r7,#0x82           ;708
00141a  ea400702          ORR      r7,r0,r2              ;708
00141e  4ba1              LDR      r3,|L1.5796|
001420  ea4f3218          LSR      r2,r8,#12             ;708
001424  4640              MOV      r0,r8                 ;708
001426  f8532022          LDR      r2,[r3,r2,LSL #2]     ;708
00142a  f002baae          B.W      |L1.14730|
00142e  499b              LDR      r1,|L1.5788|
001430  0b02              LSRS     r2,r0,#12             ;711
001432  f8511022          LDR      r1,[r1,r2,LSL #2]     ;711
001436  4788              BLX      r1                    ;711
001438  1c61              ADDS     r1,r4,#1              ;711
00143a  4680              MOV      r8,r0                 ;711
00143c  b288              UXTH     r0,r1                 ;711
00143e  f3c13203          UBFX     r2,r1,#12,#4          ;711
001442  4996              LDR      r1,|L1.5788|
001444  f8511022          LDR      r1,[r1,r2,LSL #2]     ;711
001448  4788              BLX      r1                    ;711
00144a  ea482000          ORR      r0,r8,r0,LSL #8       ;711
00144e  b284              UXTH     r4,r0                 ;711
001450  2000              MOVS     r0,#0                 ;711
001452  f002ba07          B.W      |L1.14436|
001456  4991              LDR      r1,|L1.5788|
001458  0b02              LSRS     r2,r0,#12             ;712
00145a  f8511022          LDR      r1,[r1,r2,LSL #2]     ;712
00145e  4788              BLX      r1                    ;712
001460  1c61              ADDS     r1,r4,#1              ;712
001462  4680              MOV      r8,r0                 ;712
001464  b288              UXTH     r0,r1                 ;712
001466  f3c13203          UBFX     r2,r1,#12,#4          ;712
00146a  498c              LDR      r1,|L1.5788|
00146c  f8511022          LDR      r1,[r1,r2,LSL #2]     ;712
001470  4788              BLX      r1                    ;712
001472  ea482000          ORR      r0,r8,r0,LSL #8       ;712
001476  4989              LDR      r1,|L1.5788|
001478  0b02              LSRS     r2,r0,#12             ;713
00147a  4680              MOV      r8,r0                 ;712
00147c  f8511022          LDR      r1,[r1,r2,LSL #2]     ;713
001480  4788              BLX      r1                    ;713
001482  f3600407          BFI      r4,r0,#0,#8           ;713
001486  4640              MOV      r0,r8                 ;713
001488  1c41              ADDS     r1,r0,#1              ;713
00148a  f3610007          BFI      r0,r1,#0,#8           ;713
00148e  b280              UXTH     r0,r0                 ;713
001490  4982              LDR      r1,|L1.5788|
001492  0b02              LSRS     r2,r0,#12             ;714
001494  f8511022          LDR      r1,[r1,r2,LSL #2]     ;714
001498  4788              BLX      r1                    ;714
00149a  f000bccd          B.W      |L1.7736|
00149e  2100              MOVS     r1,#0                 ;719
0014a0  7229              STRB     r1,[r5,#8]            ;719
0014a2  497e              LDR      r1,|L1.5788|
0014a4  0b02              LSRS     r2,r0,#12             ;720
0014a6  f8511022          LDR      r1,[r1,r2,LSL #2]     ;720
0014aa  4788              BLX      r1                    ;720
0014ac  1c61              ADDS     r1,r4,#1              ;720
0014ae  4680              MOV      r8,r0                 ;720
0014b0  b288              UXTH     r0,r1                 ;720
0014b2  f3c13203          UBFX     r2,r1,#12,#4          ;720
0014b6  4979              LDR      r1,|L1.5788|
0014b8  f8511022          LDR      r1,[r1,r2,LSL #2]     ;720
0014bc  4788              BLX      r1                    ;720
0014be  ea482100          ORR      r1,r8,r0,LSL #8       ;720
0014c2  68eb              LDR      r3,[r5,#0xc]          ;722  ; pStack
0014c4  f8ddc000          LDR      r12,[sp,#0]           ;722
0014c8  1c60              ADDS     r0,r4,#1              ;721
0014ca  0a02              LSRS     r2,r0,#8              ;721
0014cc  f803200c          STRB     r2,[r3,r12]           ;722
0014d0  9a00              LDR      r2,[sp,#0]            ;722
0014d2  460c              MOV      r4,r1                 ;724
0014d4  1e52              SUBS     r2,r2,#1              ;722
0014d6  b2d2              UXTB     r2,r2                 ;722
0014d8  5498              STRB     r0,[r3,r2]            ;723
0014da  1e50              SUBS     r0,r2,#1              ;723
0014dc  b2c0              UXTB     r0,r0                 ;723
0014de  9000              STR      r0,[sp,#0]            ;725
0014e0  f002baf9          B.W      |L1.15062|
0014e4  0b01              LSRS     r1,r0,#12             ;728
0014e6  f8581021          LDR      r1,[r8,r1,LSL #2]     ;728
0014ea  4788              BLX      r1                    ;728
0014ec  1c61              ADDS     r1,r4,#1              ;728
0014ee  b28c              UXTH     r4,r1                 ;728
0014f0  4448              ADD      r0,r0,r9              ;728
0014f2  496b              LDR      r1,|L1.5792|
0014f4  b2c0              UXTB     r0,r0                 ;728
0014f6  5c0a              LDRB     r2,[r1,r0]            ;728
0014f8  1c40              ADDS     r0,r0,#1              ;728
0014fa  fa51f080          UXTAB    r0,r1,r0              ;728
0014fe  7800              LDRB     r0,[r0,#0]            ;728
001500  ea422000          ORR      r0,r2,r0,LSL #8       ;728
001504  e08e              B        |L1.5668|
001506  0b01              LSRS     r1,r0,#12             ;729
001508  f8581021          LDR      r1,[r8,r1,LSL #2]     ;729
00150c  4788              BLX      r1                    ;729
00150e  4964              LDR      r1,|L1.5792|
001510  b280              UXTH     r0,r0                 ;729
001512  5c0e              LDRB     r6,[r1,r0]            ;729
001514  4960              LDR      r1,|L1.5784|
001516  722e              STRB     r6,[r5,#8]            ;729
001518  1c60              ADDS     r0,r4,#1              ;729
00151a  b284              UXTH     r4,r0                 ;729
00151c  5d89              LDRB     r1,[r1,r6]            ;729
00151e  f0270082          BIC      r0,r7,#0x82           ;729
001522  ea400701          ORR      r7,r0,r1              ;729
001526  f002bad6          B.W      |L1.15062|
00152a  0b01              LSRS     r1,r0,#12             ;730
00152c  f8581021          LDR      r1,[r8,r1,LSL #2]     ;730
001530  4788              BLX      r1                    ;730
001532  1c61              ADDS     r1,r4,#1              ;730
001534  b28c              UXTH     r4,r1                 ;730
001536  7228              STRB     r0,[r5,#8]            ;730
001538  4606              MOV      r6,r0                 ;730
00153a  f0270182          BIC      r1,r7,#0x82           ;730
00153e  4a56              LDR      r2,|L1.5784|
001540  e40e              B        |L1.3424|
001542  0b01              LSRS     r1,r0,#12             ;731
001544  f8581021          LDR      r1,[r8,r1,LSL #2]     ;731
001548  4788              BLX      r1                    ;731
00154a  4606              MOV      r6,r0                 ;731
00154c  1c61              ADDS     r1,r4,#1              ;731
00154e  b288              UXTH     r0,r1                 ;731
001550  f3c13103          UBFX     r1,r1,#12,#4          ;731
001554  f8581021          LDR      r1,[r8,r1,LSL #2]     ;731
001558  4788              BLX      r1                    ;731
00155a  ea462000          ORR      r0,r6,r0,LSL #8       ;731
00155e  0b01              LSRS     r1,r0,#12             ;731
001560  f8581021          LDR      r1,[r8,r1,LSL #2]     ;731
001564  4788              BLX      r1                    ;731
001566  4606              MOV      r6,r0                 ;731
001568  7228              STRB     r0,[r5,#8]            ;731
00156a  494b              LDR      r1,|L1.5784|
00156c  1ca0              ADDS     r0,r4,#2              ;731
00156e  b284              UXTH     r4,r0                 ;731
001570  5d89              LDRB     r1,[r1,r6]            ;731
001572  f0270082          BIC      r0,r7,#0x82           ;731
001576  ea400701          ORR      r7,r0,r1              ;731
00157a  f002baac          B.W      |L1.15062|
00157e  0b01              LSRS     r1,r0,#12             ;732
001580  f8581021          LDR      r1,[r8,r1,LSL #2]     ;732
001584  4788              BLX      r1                    ;732
001586  4946              LDR      r1,|L1.5792|
001588  7228              STRB     r0,[r5,#8]            ;732
00158a  5c0a              LDRB     r2,[r1,r0]            ;732
00158c  1c40              ADDS     r0,r0,#1              ;732
00158e  fa51f080          UXTAB    r0,r1,r0              ;732
001592  7800              LDRB     r0,[r0,#0]            ;732
001594  ea422100          ORR      r1,r2,r0,LSL #8       ;732
001598  1c60              ADDS     r0,r4,#1              ;732
00159a  b284              UXTH     r4,r0                 ;732
00159c  eb01000a          ADD      r0,r1,r10             ;732
0015a0  b280              UXTH     r0,r0                 ;732
0015a2  0a02              LSRS     r2,r0,#8              ;732
0015a4  0a09              LSRS     r1,r1,#8              ;732
0015a6  428a              CMP      r2,r1                 ;732
0015a8  d002              BEQ      |L1.5552|
0015aa  6929              LDR      r1,[r5,#0x10]         ;732  ; nCPUCycle
0015ac  1c49              ADDS     r1,r1,#1              ;732
0015ae  6129              STR      r1,[r5,#0x10]         ;732  ; nCPUCycle
                  |L1.5552|
0015b0  0b01              LSRS     r1,r0,#12             ;732
0015b2  f8581021          LDR      r1,[r8,r1,LSL #2]     ;732
0015b6  4788              BLX      r1                    ;732
0015b8  4937              LDR      r1,|L1.5784|
0015ba  4606              MOV      r6,r0                 ;732
0015bc  7228              STRB     r0,[r5,#8]            ;732
0015be  5d89              LDRB     r1,[r1,r6]            ;732
0015c0  f0270082          BIC      r0,r7,#0x82           ;732
0015c4  ea400701          ORR      r7,r0,r1              ;732
0015c8  f002ba85          B.W      |L1.15062|
0015cc  0b01              LSRS     r1,r0,#12             ;733
0015ce  f8581021          LDR      r1,[r8,r1,LSL #2]     ;733
0015d2  4788              BLX      r1                    ;733
0015d4  4448              ADD      r0,r0,r9              ;733
0015d6  4932              LDR      r1,|L1.5792|
0015d8  b2c0              UXTB     r0,r0                 ;733
0015da  5c0e              LDRB     r6,[r1,r0]            ;733
0015dc  492e              LDR      r1,|L1.5784|
0015de  722e              STRB     r6,[r5,#8]            ;733
0015e0  1c60              ADDS     r0,r4,#1              ;733
0015e2  b284              UXTH     r4,r0                 ;733
0015e4  5d89              LDRB     r1,[r1,r6]            ;733
0015e6  f0270082          BIC      r0,r7,#0x82           ;733
0015ea  ea400701          ORR      r7,r0,r1              ;733
0015ee  f002ba72          B.W      |L1.15062|
0015f2  0b01              LSRS     r1,r0,#12             ;734
0015f4  f8581021          LDR      r1,[r8,r1,LSL #2]     ;734
0015f8  4788              BLX      r1                    ;734
0015fa  4606              MOV      r6,r0                 ;734
0015fc  1c60              ADDS     r0,r4,#1              ;734
0015fe  b282              UXTH     r2,r0                 ;734
001600  f3c03003          UBFX     r0,r0,#12,#4          ;734
001604  f8581020          LDR      r1,[r8,r0,LSL #2]     ;734
001608  4610              MOV      r0,r2                 ;734
00160a  4788              BLX      r1                    ;734
00160c  ea462100          ORR      r1,r6,r0,LSL #8       ;734
001610  eb01000a          ADD      r0,r1,r10             ;734
001614  1ca2              ADDS     r2,r4,#2              ;734
001616  b280              UXTH     r0,r0                 ;734
001618  b294              UXTH     r4,r2                 ;734
00161a  f3c12107          UBFX     r1,r1,#8,#8           ;734
00161e  0a02              LSRS     r2,r0,#8              ;734
001620  4291              CMP      r1,r2                 ;734
001622  d126              BNE      |L1.5746|
                  |L1.5668|
001624  0b01              LSRS     r1,r0,#12             ;734
001626  f8581021          LDR      r1,[r8,r1,LSL #2]     ;734
00162a  4788              BLX      r1                    ;734
00162c  4a1a              LDR      r2,|L1.5784|
00162e  7228              STRB     r0,[r5,#8]            ;734
001630  4606              MOV      r6,r0                 ;734
001632  5c10              LDRB     r0,[r2,r0]            ;734
001634  f0270182          BIC      r1,r7,#0x82           ;734
001638  ea410700          ORR      r7,r1,r0              ;734
00163c  f002ba4b          B.W      |L1.15062|
001640  0b01              LSRS     r1,r0,#12             ;735
001642  f8581021          LDR      r1,[r8,r1,LSL #2]     ;735
001646  4788              BLX      r1                    ;735
001648  4606              MOV      r6,r0                 ;735
00164a  1c60              ADDS     r0,r4,#1              ;735
00164c  b282              UXTH     r2,r0                 ;735
00164e  f3c03003          UBFX     r0,r0,#12,#4          ;735
001652  f8581020          LDR      r1,[r8,r0,LSL #2]     ;735
001656  4610              MOV      r0,r2                 ;735
001658  4788              BLX      r1                    ;735
00165a  ea462100          ORR      r1,r6,r0,LSL #8       ;735
00165e  eb010009          ADD      r0,r1,r9              ;735
001662  1ca2              ADDS     r2,r4,#2              ;735
001664  b280              UXTH     r0,r0                 ;735
001666  b294              UXTH     r4,r2                 ;735
001668  f3c12107          UBFX     r1,r1,#8,#8           ;735
00166c  0a02              LSRS     r2,r0,#8              ;735
00166e  4291              CMP      r1,r2                 ;735
001670  d0d8              BEQ      |L1.5668|
                  |L1.5746|
001672  6929              LDR      r1,[r5,#0x10]         ;735  ; nCPUCycle
001674  1c49              ADDS     r1,r1,#1              ;735
001676  6129              STR      r1,[r5,#0x10]         ;735  ; nCPUCycle
001678  e7d4              B        |L1.5668|
00167a  0b01              LSRS     r1,r0,#12             ;738
00167c  f8581021          LDR      r1,[r8,r1,LSL #2]     ;738
001680  4788              BLX      r1                    ;738
001682  4681              MOV      r9,r0                 ;738
001684  7228              STRB     r0,[r5,#8]            ;738
001686  4904              LDR      r1,|L1.5784|
001688  1c60              ADDS     r0,r4,#1              ;738
00168a  b284              UXTH     r4,r0                 ;738
00168c  f0270082          BIC      r0,r7,#0x82           ;738
001690  f8111009          LDRB     r1,[r1,r9]            ;738
001694  f002b8b0          B.W      |L1.14328|
                  |L1.5784|
                          DCD      ||.constdata||+0x100
                  |L1.5788|
                          DCD      ||.bss||+0x800
                  |L1.5792|
                          DCD      ||.bss||
                  |L1.5796|
                          DCD      ||.bss||+0x840
0016a8  0b01              LSRS     r1,r0,#12             ;739
0016aa  f8581021          LDR      r1,[r8,r1,LSL #2]     ;739
0016ae  4788              BLX      r1                    ;739
0016b0  49fe              LDR      r1,|L1.6828|
0016b2  b280              UXTH     r0,r0                 ;739
0016b4  f8119000          LDRB     r9,[r1,r0]            ;739
0016b8  49fd              LDR      r1,|L1.6832|
0016ba  1c60              ADDS     r0,r4,#1              ;739
0016bc  f8859008          STRB     r9,[r5,#8]            ;739
0016c0  b284              UXTH     r4,r0                 ;739
0016c2  f0270082          BIC      r0,r7,#0x82           ;739
0016c6  f8111009          LDRB     r1,[r1,r9]            ;739
0016ca  f002b895          B.W      |L1.14328|
0016ce  0b01              LSRS     r1,r0,#12             ;740
0016d0  f8581021          LDR      r1,[r8,r1,LSL #2]     ;740
0016d4  4788              BLX      r1                    ;740
0016d6  4681              MOV      r9,r0                 ;740
0016d8  1c61              ADDS     r1,r4,#1              ;740
0016da  b288              UXTH     r0,r1                 ;740
0016dc  f3c13103          UBFX     r1,r1,#12,#4          ;740
0016e0  f8581021          LDR      r1,[r8,r1,LSL #2]     ;740
0016e4  4788              BLX      r1                    ;740
0016e6  ea492000          ORR      r0,r9,r0,LSL #8       ;740
0016ea  0b01              LSRS     r1,r0,#12             ;740
0016ec  f8581021          LDR      r1,[r8,r1,LSL #2]     ;740
0016f0  4788              BLX      r1                    ;740
0016f2  4681              MOV      r9,r0                 ;740
0016f4  7228              STRB     r0,[r5,#8]            ;740
0016f6  49ee              LDR      r1,|L1.6832|
0016f8  1ca0              ADDS     r0,r4,#2              ;740
0016fa  b284              UXTH     r4,r0                 ;740
0016fc  f0270082          BIC      r0,r7,#0x82           ;740
001700  f8111009          LDRB     r1,[r1,r9]            ;740
001704  f002b878          B.W      |L1.14328|
001708  0b01              LSRS     r1,r0,#12             ;741
00170a  f8581021          LDR      r1,[r8,r1,LSL #2]     ;741
00170e  4788              BLX      r1                    ;741
001710  4450              ADD      r0,r0,r10             ;741
001712  49e6              LDR      r1,|L1.6828|
001714  b2c0              UXTB     r0,r0                 ;741
001716  f8119000          LDRB     r9,[r1,r0]            ;741
00171a  49e5              LDR      r1,|L1.6832|
00171c  1c60              ADDS     r0,r4,#1              ;741
00171e  f8859008          STRB     r9,[r5,#8]            ;741
001722  b284              UXTH     r4,r0                 ;741
001724  f0270082          BIC      r0,r7,#0x82           ;741
001728  f8111009          LDRB     r1,[r1,r9]            ;741
00172c  f002b864          B.W      |L1.14328|
001730  0b01              LSRS     r1,r0,#12             ;742
001732  f8581021          LDR      r1,[r8,r1,LSL #2]     ;742
001736  4788              BLX      r1                    ;742
001738  4681              MOV      r9,r0                 ;742
00173a  1c60              ADDS     r0,r4,#1              ;742
00173c  b282              UXTH     r2,r0                 ;742
00173e  f3c03003          UBFX     r0,r0,#12,#4          ;742
001742  f8581020          LDR      r1,[r8,r0,LSL #2]     ;742
001746  4610              MOV      r0,r2                 ;742
001748  4788              BLX      r1                    ;742
00174a  ea492100          ORR      r1,r9,r0,LSL #8       ;742
00174e  eb01000a          ADD      r0,r1,r10             ;742
001752  1ca2              ADDS     r2,r4,#2              ;742
001754  b280              UXTH     r0,r0                 ;742
001756  b294              UXTH     r4,r2                 ;742
001758  f3c12107          UBFX     r1,r1,#8,#8           ;742
00175c  0a02              LSRS     r2,r0,#8              ;742
00175e  4291              CMP      r1,r2                 ;742
001760  d002              BEQ      |L1.5992|
001762  6929              LDR      r1,[r5,#0x10]         ;742  ; nCPUCycle
001764  1c49              ADDS     r1,r1,#1              ;742
001766  6129              STR      r1,[r5,#0x10]         ;742  ; nCPUCycle
                  |L1.5992|
001768  0b01              LSRS     r1,r0,#12             ;742
00176a  f8581021          LDR      r1,[r8,r1,LSL #2]     ;742
00176e  4788              BLX      r1                    ;742
001770  49cf              LDR      r1,|L1.6832|
001772  4681              MOV      r9,r0                 ;742
001774  7228              STRB     r0,[r5,#8]            ;742
001776  f0270082          BIC      r0,r7,#0x82           ;742
00177a  f8111009          LDRB     r1,[r1,r9]            ;742
00177e  f002b83b          B.W      |L1.14328|
001782  0b01              LSRS     r1,r0,#12             ;745
001784  f8581021          LDR      r1,[r8,r1,LSL #2]     ;745
001788  4788              BLX      r1                    ;745
00178a  1c61              ADDS     r1,r4,#1              ;745
00178c  b28c              UXTH     r4,r1                 ;745
00178e  49c8              LDR      r1,|L1.6832|
001790  7228              STRB     r0,[r5,#8]            ;745
001792  4682              MOV      r10,r0                ;745
001794  f0270082          BIC      r0,r7,#0x82           ;745
001798  f811100a          LDRB     r1,[r1,r10]           ;745
00179c  f002b82c          B.W      |L1.14328|
0017a0  0b01              LSRS     r1,r0,#12             ;746
0017a2  f8581021          LDR      r1,[r8,r1,LSL #2]     ;746
0017a6  4788              BLX      r1                    ;746
0017a8  49c0              LDR      r1,|L1.6828|
0017aa  b280              UXTH     r0,r0                 ;746
0017ac  f811a000          LDRB     r10,[r1,r0]           ;746
0017b0  49bf              LDR      r1,|L1.6832|
0017b2  1c60              ADDS     r0,r4,#1              ;746
0017b4  f885a008          STRB     r10,[r5,#8]           ;746
0017b8  b284              UXTH     r4,r0                 ;746
0017ba  f0270082          BIC      r0,r7,#0x82           ;746
0017be  f811100a          LDRB     r1,[r1,r10]           ;746
0017c2  f002b819          B.W      |L1.14328|
0017c6  0b01              LSRS     r1,r0,#12             ;747
0017c8  f8581021          LDR      r1,[r8,r1,LSL #2]     ;747
0017cc  4788              BLX      r1                    ;747
0017ce  4682              MOV      r10,r0                ;747
0017d0  1c61              ADDS     r1,r4,#1              ;747
0017d2  b288              UXTH     r0,r1                 ;747
0017d4  f3c13103          UBFX     r1,r1,#12,#4          ;747
0017d8  f8581021          LDR      r1,[r8,r1,LSL #2]     ;747
0017dc  4788              BLX      r1                    ;747
0017de  ea4a2000          ORR      r0,r10,r0,LSL #8      ;747
0017e2  0b01              LSRS     r1,r0,#12             ;747
0017e4  f8581021          LDR      r1,[r8,r1,LSL #2]     ;747
0017e8  4788              BLX      r1                    ;747
0017ea  4ab1              LDR      r2,|L1.6832|
0017ec  7228              STRB     r0,[r5,#8]            ;747
0017ee  1ca1              ADDS     r1,r4,#2              ;747
0017f0  4682              MOV      r10,r0                ;747
0017f2  b28c              UXTH     r4,r1                 ;747
0017f4  5c10              LDRB     r0,[r2,r0]            ;747
0017f6  f0270182          BIC      r1,r7,#0x82           ;747
0017fa  ea410700          ORR      r7,r1,r0              ;747
0017fe  f002b96a          B.W      |L1.15062|
001802  0b01              LSRS     r1,r0,#12             ;748
001804  f8581021          LDR      r1,[r8,r1,LSL #2]     ;748
001808  4788              BLX      r1                    ;748
00180a  4448              ADD      r0,r0,r9              ;748
00180c  49a7              LDR      r1,|L1.6828|
00180e  b2c0              UXTB     r0,r0                 ;748
001810  f811a000          LDRB     r10,[r1,r0]           ;748
001814  49a6              LDR      r1,|L1.6832|
001816  1c60              ADDS     r0,r4,#1              ;748
001818  f885a008          STRB     r10,[r5,#8]           ;748
00181c  b284              UXTH     r4,r0                 ;748
00181e  f0270082          BIC      r0,r7,#0x82           ;748
001822  f811100a          LDRB     r1,[r1,r10]           ;748
001826  f001bfe7          B.W      |L1.14328|
00182a  0b01              LSRS     r1,r0,#12             ;749
00182c  f8581021          LDR      r1,[r8,r1,LSL #2]     ;749
001830  4788              BLX      r1                    ;749
001832  4682              MOV      r10,r0                ;749
001834  1c61              ADDS     r1,r4,#1              ;749
001836  b288              UXTH     r0,r1                 ;749
001838  f3c13103          UBFX     r1,r1,#12,#4          ;749
00183c  f8581021          LDR      r1,[r8,r1,LSL #2]     ;749
001840  4788              BLX      r1                    ;749
001842  ea4a2100          ORR      r1,r10,r0,LSL #8      ;749
001846  eb010009          ADD      r0,r1,r9              ;749
00184a  1ca2              ADDS     r2,r4,#2              ;749
00184c  b280              UXTH     r0,r0                 ;749
00184e  b294              UXTH     r4,r2                 ;749
001850  f3c12107          UBFX     r1,r1,#8,#8           ;749
001854  0a02              LSRS     r2,r0,#8              ;749
001856  4291              CMP      r1,r2                 ;749
001858  d002              BEQ      |L1.6240|
00185a  6929              LDR      r1,[r5,#0x10]         ;749  ; nCPUCycle
00185c  1c49              ADDS     r1,r1,#1              ;749
00185e  6129              STR      r1,[r5,#0x10]         ;749  ; nCPUCycle
                  |L1.6240|
001860  0b01              LSRS     r1,r0,#12             ;749
001862  f8581021          LDR      r1,[r8,r1,LSL #2]     ;749
001866  4788              BLX      r1                    ;749
001868  4991              LDR      r1,|L1.6832|
00186a  4682              MOV      r10,r0                ;749
00186c  7228              STRB     r0,[r5,#8]            ;749
00186e  f0270082          BIC      r0,r7,#0x82           ;749
001872  f811100a          LDRB     r1,[r1,r10]           ;749
001876  f001bfbf          B.W      |L1.14328|
00187a  bf00              NOP                            ;752
00187c  f0060201          AND      r2,r6,#1              ;752
001880  488b              LDR      r0,|L1.6832|
001882  f3c60647          UBFX     r6,r6,#1,#8           ;752
001886  f0270183          BIC      r1,r7,#0x83           ;752
00188a  4311              ORRS     r1,r1,r2              ;752
00188c  5d80              LDRB     r0,[r0,r6]            ;752
00188e  f000ba25          B.W      |L1.7388|
001892  0b01              LSRS     r1,r0,#12             ;753
001894  f8581021          LDR      r1,[r8,r1,LSL #2]     ;753
001898  4788              BLX      r1                    ;753
00189a  4a84              LDR      r2,|L1.6828|
00189c  4601              MOV      r1,r0                 ;753
00189e  1c60              ADDS     r0,r4,#1              ;753
0018a0  5c53              LDRB     r3,[r2,r1]            ;753
0018a2  b284              UXTH     r4,r0                 ;753
0018a4  0858              LSRS     r0,r3,#1              ;753
0018a6  f0270c83          BIC      r12,r7,#0x83          ;753
0018aa  f0030301          AND      r3,r3,#1              ;753
0018ae  ea4c0303          ORR      r3,r12,r3             ;753
0018b2  f8dfc1fc          LDR      r12,|L1.6832|
0018b6  f81cc000          LDRB     r12,[r12,r0]          ;753
0018ba  7228              STRB     r0,[r5,#8]            ;753
0018bc  ea43070c          ORR      r7,r3,r12             ;753
0018c0  5450              STRB     r0,[r2,r1]            ;753
0018c2  f002b908          B.W      |L1.15062|
0018c6  497b              LDR      r1,|L1.6836|
0018c8  0b02              LSRS     r2,r0,#12             ;754
0018ca  f8511022          LDR      r1,[r1,r2,LSL #2]     ;754
0018ce  4788              BLX      r1                    ;754
0018d0  1c61              ADDS     r1,r4,#1              ;754
0018d2  4680              MOV      r8,r0                 ;754
0018d4  b288              UXTH     r0,r1                 ;754
0018d6  f3c13203          UBFX     r2,r1,#12,#4          ;754
0018da  4976              LDR      r1,|L1.6836|
0018dc  f8511022          LDR      r1,[r1,r2,LSL #2]     ;754
0018e0  4788              BLX      r1                    ;754
0018e2  1ca1              ADDS     r1,r4,#2              ;754
0018e4  b28c              UXTH     r4,r1                 ;754
0018e6  ea482000          ORR      r0,r8,r0,LSL #8       ;754
0018ea  4972              LDR      r1,|L1.6836|
0018ec  0b02              LSRS     r2,r0,#12             ;754
0018ee  4680              MOV      r8,r0                 ;754
0018f0  f8511022          LDR      r1,[r1,r2,LSL #2]     ;754
0018f4  4788              BLX      r1                    ;754
0018f6  05c1              LSLS     r1,r0,#23             ;754
0018f8  f0270283          BIC      r2,r7,#0x83           ;754
0018fc  f0000001          AND      r0,r0,#1              ;754
001900  4310              ORRS     r0,r0,r2              ;754
001902  4a6b              LDR      r2,|L1.6832|
001904  0e09              LSRS     r1,r1,#24             ;754
001906  4b6c              LDR      r3,|L1.6840|
001908  5c52              LDRB     r2,[r2,r1]            ;754
00190a  7229              STRB     r1,[r5,#8]            ;754
00190c  ea400702          ORR      r7,r0,r2              ;754
001910  fa1ff088          UXTH     r0,r8                 ;754
001914  0b02              LSRS     r2,r0,#12             ;754
001916  f8532022          LDR      r2,[r3,r2,LSL #2]     ;754
00191a  f002b836          B.W      |L1.14730|
00191e  0b01              LSRS     r1,r0,#12             ;755
001920  f8581021          LDR      r1,[r8,r1,LSL #2]     ;755
001924  4788              BLX      r1                    ;755
001926  eb000109          ADD      r1,r0,r9              ;755
00192a  f3610007          BFI      r0,r1,#0,#8           ;755
00192e  1c61              ADDS     r1,r4,#1              ;755
001930  b28c              UXTH     r4,r1                 ;755
001932  4a5e              LDR      r2,|L1.6828|
001934  b281              UXTH     r1,r0                 ;755
001936  f0270c83          BIC      r12,r7,#0x83          ;755
00193a  5c53              LDRB     r3,[r2,r1]            ;755
00193c  0858              LSRS     r0,r3,#1              ;755
00193e  f0030301          AND      r3,r3,#1              ;755
001942  ea4c0303          ORR      r3,r12,r3             ;755
001946  f8dfc168          LDR      r12,|L1.6832|
00194a  f81cc000          LDRB     r12,[r12,r0]          ;755
00194e  7228              STRB     r0,[r5,#8]            ;755
001950  ea43070c          ORR      r7,r3,r12             ;755
001954  5450              STRB     r0,[r2,r1]            ;755
001956  f002b8be          B.W      |L1.15062|
00195a  4956              LDR      r1,|L1.6836|
00195c  0b02              LSRS     r2,r0,#12             ;756
00195e  f8511022          LDR      r1,[r1,r2,LSL #2]     ;756
001962  4788              BLX      r1                    ;756
001964  1c61              ADDS     r1,r4,#1              ;756
001966  4680              MOV      r8,r0                 ;756
001968  b288              UXTH     r0,r1                 ;756
00196a  f3c13203          UBFX     r2,r1,#12,#4          ;756
00196e  4951              LDR      r1,|L1.6836|
001970  f8511022          LDR      r1,[r1,r2,LSL #2]     ;756
001974  4788              BLX      r1                    ;756
001976  ea482000          ORR      r0,r8,r0,LSL #8       ;756
00197a  1ca1              ADDS     r1,r4,#2              ;756
00197c  b28c              UXTH     r4,r1                 ;756
00197e  4448              ADD      r0,r0,r9              ;756
001980  b280              UXTH     r0,r0                 ;756
001982  494c              LDR      r1,|L1.6836|
001984  0b02              LSRS     r2,r0,#12             ;756
001986  4680              MOV      r8,r0                 ;756
001988  f8511022          LDR      r1,[r1,r2,LSL #2]     ;756
00198c  4788              BLX      r1                    ;756
00198e  05c1              LSLS     r1,r0,#23             ;756
001990  f0270283          BIC      r2,r7,#0x83           ;756
001994  f0000001          AND      r0,r0,#1              ;756
001998  4310              ORRS     r0,r0,r2              ;756
00199a  4a45              LDR      r2,|L1.6832|
00199c  0e09              LSRS     r1,r1,#24             ;756
00199e  4b46              LDR      r3,|L1.6840|
0019a0  5c52              LDRB     r2,[r2,r1]            ;756
0019a2  7229              STRB     r1,[r5,#8]            ;756
0019a4  ea400702          ORR      r7,r0,r2              ;756
0019a8  ea4f3218          LSR      r2,r8,#12             ;756
0019ac  4640              MOV      r0,r8                 ;756
0019ae  f8532022          LDR      r2,[r3,r2,LSL #2]     ;756
0019b2  f001bfea          B.W      |L1.14730|
0019b6  0b01              LSRS     r1,r0,#12             ;767
0019b8  f8581021          LDR      r1,[r8,r1,LSL #2]     ;767
0019bc  4788              BLX      r1                    ;767
0019be  1c61              ADDS     r1,r4,#1              ;767
0019c0  b28c              UXTH     r4,r1                 ;767
0019c2  4448              ADD      r0,r0,r9              ;767
0019c4  4939              LDR      r1,|L1.6828|
0019c6  b2c0              UXTB     r0,r0                 ;767
0019c8  5c0a              LDRB     r2,[r1,r0]            ;767
0019ca  1c40              ADDS     r0,r0,#1              ;767
0019cc  fa51f080          UXTAB    r0,r1,r0              ;767
0019d0  7800              LDRB     r0,[r0,#0]            ;767
0019d2  ea422000          ORR      r0,r2,r0,LSL #8       ;767
0019d6  e05c              B        |L1.6802|
0019d8  0b01              LSRS     r1,r0,#12             ;768
0019da  f8581021          LDR      r1,[r8,r1,LSL #2]     ;768
0019de  4788              BLX      r1                    ;768
0019e0  4932              LDR      r1,|L1.6828|
0019e2  b280              UXTH     r0,r0                 ;768
0019e4  5c08              LDRB     r0,[r1,r0]            ;768
0019e6  1c61              ADDS     r1,r4,#1              ;768
0019e8  b28c              UXTH     r4,r1                 ;768
0019ea  4931              LDR      r1,|L1.6832|
0019ec  4306              ORRS     r6,r6,r0              ;768
0019ee  7228              STRB     r0,[r5,#8]            ;768
0019f0  5d89              LDRB     r1,[r1,r6]            ;768
0019f2  f0270082          BIC      r0,r7,#0x82           ;768
0019f6  ea400701          ORR      r7,r0,r1              ;768
0019fa  f002b86c          B.W      |L1.15062|
0019fe  0b01              LSRS     r1,r0,#12             ;769
001a00  f8581021          LDR      r1,[r8,r1,LSL #2]     ;769
001a04  4788              BLX      r1                    ;769
001a06  1c61              ADDS     r1,r4,#1              ;769
001a08  b28c              UXTH     r4,r1                 ;769
001a0a  4929              LDR      r1,|L1.6832|
001a0c  4306              ORRS     r6,r6,r0              ;769
001a0e  7228              STRB     r0,[r5,#8]            ;769
001a10  5d89              LDRB     r1,[r1,r6]            ;769
001a12  f0270082          BIC      r0,r7,#0x82           ;769
001a16  ea400701          ORR      r7,r0,r1              ;769
001a1a  f002b85c          B.W      |L1.15062|
001a1e  4925              LDR      r1,|L1.6836|
001a20  0b02              LSRS     r2,r0,#12             ;770
001a22  f8511022          LDR      r1,[r1,r2,LSL #2]     ;770
001a26  4788              BLX      r1                    ;770
001a28  1c61              ADDS     r1,r4,#1              ;770
001a2a  4680              MOV      r8,r0                 ;770
001a2c  b288              UXTH     r0,r1                 ;770
001a2e  f3c13203          UBFX     r2,r1,#12,#4          ;770
001a32  4920              LDR      r1,|L1.6836|
001a34  f8511022          LDR      r1,[r1,r2,LSL #2]     ;770
001a38  4788              BLX      r1                    ;770
001a3a  ea482000          ORR      r0,r8,r0,LSL #8       ;770
001a3e  491d              LDR      r1,|L1.6836|
001a40  0b02              LSRS     r2,r0,#12             ;770
001a42  f8511022          LDR      r1,[r1,r2,LSL #2]     ;770
001a46  4788              BLX      r1                    ;770
001a48  1ca1              ADDS     r1,r4,#2              ;770
001a4a  b28c              UXTH     r4,r1                 ;770
001a4c  4918              LDR      r1,|L1.6832|
001a4e  4306              ORRS     r6,r6,r0              ;770
001a50  7228              STRB     r0,[r5,#8]            ;770
001a52  5d89              LDRB     r1,[r1,r6]            ;770
001a54  f0270082          BIC      r0,r7,#0x82           ;770
001a58  ea400701          ORR      r7,r0,r1              ;770
001a5c  f002b83b          B.W      |L1.15062|
001a60  0b01              LSRS     r1,r0,#12             ;771
001a62  f8581021          LDR      r1,[r8,r1,LSL #2]     ;771
001a66  4788              BLX      r1                    ;771
001a68  4910              LDR      r1,|L1.6828|
001a6a  7228              STRB     r0,[r5,#8]            ;771
001a6c  5c0a              LDRB     r2,[r1,r0]            ;771
001a6e  1c40              ADDS     r0,r0,#1              ;771
001a70  fa51f080          UXTAB    r0,r1,r0              ;771
001a74  7800              LDRB     r0,[r0,#0]            ;771
001a76  ea422100          ORR      r1,r2,r0,LSL #8       ;771
001a7a  1c60              ADDS     r0,r4,#1              ;771
001a7c  b284              UXTH     r4,r0                 ;771
001a7e  eb01000a          ADD      r0,r1,r10             ;771
001a82  b280              UXTH     r0,r0                 ;771
001a84  0a02              LSRS     r2,r0,#8              ;771
001a86  0a09              LSRS     r1,r1,#8              ;771
001a88  428a              CMP      r2,r1                 ;771
001a8a  d002              BEQ      |L1.6802|
001a8c  6929              LDR      r1,[r5,#0x10]         ;771  ; nCPUCycle
001a8e  1c49              ADDS     r1,r1,#1              ;771
001a90  6129              STR      r1,[r5,#0x10]         ;771  ; nCPUCycle
                  |L1.6802|
001a92  0b01              LSRS     r1,r0,#12             ;771
001a94  f8581021          LDR      r1,[r8,r1,LSL #2]     ;771
001a98  4788              BLX      r1                    ;771
001a9a  4905              LDR      r1,|L1.6832|
001a9c  4306              ORRS     r6,r6,r0              ;771
001a9e  7228              STRB     r0,[r5,#8]            ;771
001aa0  5d89              LDRB     r1,[r1,r6]            ;771
001aa2  f0270082          BIC      r0,r7,#0x82           ;771
001aa6  ea400701          ORR      r7,r0,r1              ;771
001aaa  e007              B        |L1.6844|
                  |L1.6828|
                          DCD      ||.bss||
                  |L1.6832|
                          DCD      ||.constdata||+0x100
                  |L1.6836|
                          DCD      ||.bss||+0x800
                  |L1.6840|
                          DCD      ||.bss||+0x840
                  |L1.6844|
001abc  f002b80b          B.W      |L1.15062|
001ac0  0b01              LSRS     r1,r0,#12             ;772
001ac2  f8581021          LDR      r1,[r8,r1,LSL #2]     ;772
001ac6  4788              BLX      r1                    ;772
001ac8  4448              ADD      r0,r0,r9              ;772
001aca  49ff              LDR      r1,|L1.7880|
001acc  b2c0              UXTB     r0,r0                 ;772
001ace  5c08              LDRB     r0,[r1,r0]            ;772
001ad0  1c61              ADDS     r1,r4,#1              ;772
001ad2  b28c              UXTH     r4,r1                 ;772
001ad4  49fd              LDR      r1,|L1.7884|
001ad6  4306              ORRS     r6,r6,r0              ;772
001ad8  7228              STRB     r0,[r5,#8]            ;772
001ada  5d89              LDRB     r1,[r1,r6]            ;772
001adc  f0270082          BIC      r0,r7,#0x82           ;772
001ae0  ea400701          ORR      r7,r0,r1              ;772
001ae4  f001bff7          B.W      |L1.15062|
001ae8  49f9              LDR      r1,|L1.7888|
001aea  0b02              LSRS     r2,r0,#12             ;773
001aec  f8511022          LDR      r1,[r1,r2,LSL #2]     ;773
001af0  4788              BLX      r1                    ;773
001af2  1c61              ADDS     r1,r4,#1              ;773
001af4  4680              MOV      r8,r0                 ;773
001af6  b288              UXTH     r0,r1                 ;773
001af8  f3c13203          UBFX     r2,r1,#12,#4          ;773
001afc  49f4              LDR      r1,|L1.7888|
001afe  f8511022          LDR      r1,[r1,r2,LSL #2]     ;773
001b02  4788              BLX      r1                    ;773
001b04  ea482100          ORR      r1,r8,r0,LSL #8       ;773
001b08  eb01000a          ADD      r0,r1,r10             ;773
001b0c  1ca2              ADDS     r2,r4,#2              ;773
001b0e  b280              UXTH     r0,r0                 ;773
001b10  b294              UXTH     r4,r2                 ;773
001b12  f3c12107          UBFX     r1,r1,#8,#8           ;773
001b16  0a02              LSRS     r2,r0,#8              ;773
001b18  4291              CMP      r1,r2                 ;773
001b1a  d128              BNE      |L1.7022|
                  |L1.6940|
001b1c  49ec              LDR      r1,|L1.7888|
001b1e  0b02              LSRS     r2,r0,#12             ;773
001b20  f8511022          LDR      r1,[r1,r2,LSL #2]     ;773
001b24  4788              BLX      r1                    ;773
001b26  49e9              LDR      r1,|L1.7884|
001b28  4306              ORRS     r6,r6,r0              ;773
001b2a  7228              STRB     r0,[r5,#8]            ;773
001b2c  5d89              LDRB     r1,[r1,r6]            ;773
001b2e  f0270082          BIC      r0,r7,#0x82           ;773
001b32  ea400701          ORR      r7,r0,r1              ;773
001b36  f001bfce          B.W      |L1.15062|
001b3a  49e5              LDR      r1,|L1.7888|
001b3c  0b02              LSRS     r2,r0,#12             ;774
001b3e  f8511022          LDR      r1,[r1,r2,LSL #2]     ;774
001b42  4788              BLX      r1                    ;774
001b44  1c61              ADDS     r1,r4,#1              ;774
001b46  4680              MOV      r8,r0                 ;774
001b48  b288              UXTH     r0,r1                 ;774
001b4a  f3c13203          UBFX     r2,r1,#12,#4          ;774
001b4e  49e0              LDR      r1,|L1.7888|
001b50  f8511022          LDR      r1,[r1,r2,LSL #2]     ;774
001b54  4788              BLX      r1                    ;774
001b56  ea482100          ORR      r1,r8,r0,LSL #8       ;774
001b5a  eb010009          ADD      r0,r1,r9              ;774
001b5e  1ca2              ADDS     r2,r4,#2              ;774
001b60  b280              UXTH     r0,r0                 ;774
001b62  b294              UXTH     r4,r2                 ;774
001b64  f3c12107          UBFX     r1,r1,#8,#8           ;774
001b68  0a02              LSRS     r2,r0,#8              ;774
001b6a  4291              CMP      r1,r2                 ;774
001b6c  d0d6              BEQ      |L1.6940|
                  |L1.7022|
001b6e  6929              LDR      r1,[r5,#0x10]         ;774  ; nCPUCycle
001b70  1c49              ADDS     r1,r1,#1              ;774
001b72  6129              STR      r1,[r5,#0x10]         ;774  ; nCPUCycle
001b74  e7d2              B        |L1.6940|
001b76  4638              MOV      r0,r7                 ;777
001b78  f366005f          BFI      r0,r6,#1,#31          ;777
001b7c  49d3              LDR      r1,|L1.7884|
001b7e  b2c6              UXTB     r6,r0                 ;777
001b80  f3c02007          UBFX     r0,r0,#8,#8           ;777
001b84  5d89              LDRB     r1,[r1,r6]            ;777
001b86  4308              ORRS     r0,r0,r1              ;777
001b88  f0270183          BIC      r1,r7,#0x83           ;777
001b8c  f001be34          B.W      |L1.14328|
001b90  0b01              LSRS     r1,r0,#12             ;778
001b92  f8581021          LDR      r1,[r8,r1,LSL #2]     ;778
001b96  4788              BLX      r1                    ;778
001b98  4602              MOV      r2,r0                 ;778
001b9a  4bcb              LDR      r3,|L1.7880|
001b9c  1c60              ADDS     r0,r4,#1              ;778
001b9e  b284              UXTH     r4,r0                 ;778
001ba0  5c99              LDRB     r1,[r3,r2]            ;778
001ba2  4638              MOV      r0,r7                 ;778
001ba4  f361005f          BFI      r0,r1,#1,#31          ;778
001ba8  f8dfc320          LDR      r12,|L1.7884|
001bac  b2c1              UXTB     r1,r0                 ;778
001bae  f81cc001          LDRB     r12,[r12,r1]          ;778
001bb2  7229              STRB     r1,[r5,#8]            ;778
001bb4  ea4c2010          ORR      r0,r12,r0,LSR #8      ;778
001bb8  f0270c83          BIC      r12,r7,#0x83          ;778
001bbc  ea40070c          ORR      r7,r0,r12             ;778
001bc0  5499              STRB     r1,[r3,r2]            ;778
001bc2  f001bf88          B.W      |L1.15062|
001bc6  49c2              LDR      r1,|L1.7888|
001bc8  0b02              LSRS     r2,r0,#12             ;779
001bca  f8511022          LDR      r1,[r1,r2,LSL #2]     ;779
001bce  4788              BLX      r1                    ;779
001bd0  1c61              ADDS     r1,r4,#1              ;779
001bd2  4680              MOV      r8,r0                 ;779
001bd4  b288              UXTH     r0,r1                 ;779
001bd6  f3c13203          UBFX     r2,r1,#12,#4          ;779
001bda  49bd              LDR      r1,|L1.7888|
001bdc  f8511022          LDR      r1,[r1,r2,LSL #2]     ;779
001be0  4788              BLX      r1                    ;779
001be2  1ca1              ADDS     r1,r4,#2              ;779
001be4  b28c              UXTH     r4,r1                 ;779
001be6  ea482000          ORR      r0,r8,r0,LSL #8       ;779
001bea  49b9              LDR      r1,|L1.7888|
001bec  0b02              LSRS     r2,r0,#12             ;779
001bee  4680              MOV      r8,r0                 ;779
001bf0  f8511022          LDR      r1,[r1,r2,LSL #2]     ;779
001bf4  4788              BLX      r1                    ;779
001bf6  4601              MOV      r1,r0                 ;779
001bf8  4638              MOV      r0,r7                 ;779
001bfa  f361005f          BFI      r0,r1,#1,#31          ;779
001bfe  4ab3              LDR      r2,|L1.7884|
001c00  b2c1              UXTB     r1,r0                 ;779
001c02  f3c02007          UBFX     r0,r0,#8,#8           ;779
001c06  5c52              LDRB     r2,[r2,r1]            ;779
001c08  4bb2              LDR      r3,|L1.7892|
001c0a  4310              ORRS     r0,r0,r2              ;779
001c0c  f0270283          BIC      r2,r7,#0x83           ;779
001c10  ea400702          ORR      r7,r0,r2              ;779
001c14  fa1ff088          UXTH     r0,r8                 ;779
001c18  0b02              LSRS     r2,r0,#12             ;779
001c1a  7229              STRB     r1,[r5,#8]            ;779
001c1c  f8532022          LDR      r2,[r3,r2,LSL #2]     ;779
001c20  f001beb3          B.W      |L1.14730|
001c24  0b01              LSRS     r1,r0,#12             ;780
001c26  f8581021          LDR      r1,[r8,r1,LSL #2]     ;780
001c2a  4788              BLX      r1                    ;780
001c2c  eb000109          ADD      r1,r0,r9              ;780
001c30  f3610007          BFI      r0,r1,#0,#8           ;780
001c34  4ba4              LDR      r3,|L1.7880|
001c36  1c61              ADDS     r1,r4,#1              ;780
001c38  b282              UXTH     r2,r0                 ;780
001c3a  b28c              UXTH     r4,r1                 ;780
001c3c  5c99              LDRB     r1,[r3,r2]            ;780
001c3e  4638              MOV      r0,r7                 ;780
001c40  f361005f          BFI      r0,r1,#1,#31          ;780
001c44  f8dfc284          LDR      r12,|L1.7884|
001c48  b2c1              UXTB     r1,r0                 ;780
001c4a  f81cc001          LDRB     r12,[r12,r1]          ;780
001c4e  7229              STRB     r1,[r5,#8]            ;780
001c50  ea4c2010          ORR      r0,r12,r0,LSR #8      ;780
001c54  f0270c83          BIC      r12,r7,#0x83          ;780
001c58  ea40070c          ORR      r7,r0,r12             ;780
001c5c  5499              STRB     r1,[r3,r2]            ;780
001c5e  f001bf3a          B.W      |L1.15062|
001c62  499b              LDR      r1,|L1.7888|
001c64  0b02              LSRS     r2,r0,#12             ;781
001c66  f8511022          LDR      r1,[r1,r2,LSL #2]     ;781
001c6a  4788              BLX      r1                    ;781
001c6c  1c61              ADDS     r1,r4,#1              ;781
001c6e  4680              MOV      r8,r0                 ;781
001c70  b288              UXTH     r0,r1                 ;781
001c72  f3c13203          UBFX     r2,r1,#12,#4          ;781
001c76  4996              LDR      r1,|L1.7888|
001c78  f8511022          LDR      r1,[r1,r2,LSL #2]     ;781
001c7c  4788              BLX      r1                    ;781
001c7e  ea482000          ORR      r0,r8,r0,LSL #8       ;781
001c82  1ca1              ADDS     r1,r4,#2              ;781
001c84  b28c              UXTH     r4,r1                 ;781
001c86  4448              ADD      r0,r0,r9              ;781
001c88  b280              UXTH     r0,r0                 ;781
001c8a  4991              LDR      r1,|L1.7888|
001c8c  0b02              LSRS     r2,r0,#12             ;781
001c8e  4680              MOV      r8,r0                 ;781
001c90  f8511022          LDR      r1,[r1,r2,LSL #2]     ;781
001c94  4788              BLX      r1                    ;781
001c96  4601              MOV      r1,r0                 ;781
001c98  4638              MOV      r0,r7                 ;781
001c9a  f361005f          BFI      r0,r1,#1,#31          ;781
001c9e  4a8b              LDR      r2,|L1.7884|
001ca0  b2c1              UXTB     r1,r0                 ;781
001ca2  f3c02007          UBFX     r0,r0,#8,#8           ;781
001ca6  5c52              LDRB     r2,[r2,r1]            ;781
001ca8  4b8a              LDR      r3,|L1.7892|
001caa  4310              ORRS     r0,r0,r2              ;781
001cac  f0270283          BIC      r2,r7,#0x83           ;781
001cb0  ea400702          ORR      r7,r0,r2              ;781
001cb4  ea4f3218          LSR      r2,r8,#12             ;781
001cb8  7229              STRB     r1,[r5,#8]            ;781
001cba  4640              MOV      r0,r8                 ;781
001cbc  f8532022          LDR      r2,[r3,r2,LSL #2]     ;781
001cc0  f001be63          B.W      |L1.14730|
001cc4  0870              LSRS     r0,r6,#1              ;784
001cc6  ea4010c7          ORR      r0,r0,r7,LSL #7       ;784
001cca  f0060201          AND      r2,r6,#1              ;784
001cce  b2c6              UXTB     r6,r0                 ;784
001cd0  487e              LDR      r0,|L1.7884|
001cd2  f0270183          BIC      r1,r7,#0x83           ;784
001cd6  4311              ORRS     r1,r1,r2              ;784
001cd8  f8100006          LDRB.W   r0,[r0,r6]            ;784
                  |L1.7388|
001cdc  ea410700          ORR      r7,r1,r0              ;730
001ce0  f001bef9          B.W      |L1.15062|
001ce4  0b01              LSRS     r1,r0,#12             ;785
001ce6  f8581021          LDR      r1,[r8,r1,LSL #2]     ;785
001cea  4788              BLX      r1                    ;785
001cec  4a76              LDR      r2,|L1.7880|
001cee  1c61              ADDS     r1,r4,#1              ;785
001cf0  b28c              UXTH     r4,r1                 ;785
001cf2  5c13              LDRB     r3,[r2,r0]            ;785
001cf4  f0270c83          BIC      r12,r7,#0x83          ;785
001cf8  0859              LSRS     r1,r3,#1              ;785
001cfa  f0030301          AND      r3,r3,#1              ;785
001cfe  ea4c0303          ORR      r3,r12,r3             ;785
001d02  ea4111c7          ORR      r1,r1,r7,LSL #7       ;785
001d06  f8dfc1c4          LDR      r12,|L1.7884|
001d0a  b2c9              UXTB     r1,r1                 ;785
001d0c  f81cc001          LDRB     r12,[r12,r1]          ;785
001d10  ea43070c          ORR      r7,r3,r12             ;785
001d14  f001b908          B.W      |L1.12072|
001d18  496d              LDR      r1,|L1.7888|
001d1a  0b02              LSRS     r2,r0,#12             ;786
001d1c  f8511022          LDR      r1,[r1,r2,LSL #2]     ;786
001d20  4788              BLX      r1                    ;786
001d22  1c61              ADDS     r1,r4,#1              ;786
001d24  4680              MOV      r8,r0                 ;786
001d26  b288              UXTH     r0,r1                 ;786
001d28  f3c13203          UBFX     r2,r1,#12,#4          ;786
001d2c  4968              LDR      r1,|L1.7888|
001d2e  f8511022          LDR      r1,[r1,r2,LSL #2]     ;786
001d32  4788              BLX      r1                    ;786
001d34  1ca1              ADDS     r1,r4,#2              ;786
001d36  b28c              UXTH     r4,r1                 ;786
001d38  ea482000          ORR      r0,r8,r0,LSL #8       ;786
001d3c  4964              LDR      r1,|L1.7888|
001d3e  0b02              LSRS     r2,r0,#12             ;786
001d40  4680              MOV      r8,r0                 ;786
001d42  f8511022          LDR      r1,[r1,r2,LSL #2]     ;786
001d46  4788              BLX      r1                    ;786
001d48  0841              LSRS     r1,r0,#1              ;786
001d4a  f0270283          BIC      r2,r7,#0x83           ;786
001d4e  f0000001          AND      r0,r0,#1              ;786
001d52  4310              ORRS     r0,r0,r2              ;786
001d54  ea4111c7          ORR      r1,r1,r7,LSL #7       ;786
001d58  4a5c              LDR      r2,|L1.7884|
001d5a  b2c9              UXTB     r1,r1                 ;786
001d5c  4b5d              LDR      r3,|L1.7892|
001d5e  5c52              LDRB     r2,[r2,r1]            ;786
001d60  7229              STRB     r1,[r5,#8]            ;786
001d62  ea400702          ORR      r7,r0,r2              ;786
001d66  fa1ff088          UXTH     r0,r8                 ;786
001d6a  0b02              LSRS     r2,r0,#12             ;786
001d6c  f8532022          LDR      r2,[r3,r2,LSL #2]     ;786
001d70  4790              BLX      r2                    ;786
001d72  f001beb0          B.W      |L1.15062|
001d76  0b01              LSRS     r1,r0,#12             ;787
001d78  f8581021          LDR      r1,[r8,r1,LSL #2]     ;787
001d7c  4788              BLX      r1                    ;787
001d7e  eb000109          ADD      r1,r0,r9              ;787
001d82  f3610007          BFI      r0,r1,#0,#8           ;787
001d86  1c61              ADDS     r1,r4,#1              ;787
001d88  b28c              UXTH     r4,r1                 ;787
001d8a  4a4f              LDR      r2,|L1.7880|
001d8c  b281              UXTH     r1,r0                 ;787
001d8e  f0270c83          BIC      r12,r7,#0x83          ;787
001d92  5c53              LDRB     r3,[r2,r1]            ;787
001d94  0858              LSRS     r0,r3,#1              ;787
001d96  f0030301          AND      r3,r3,#1              ;787
001d9a  ea4c0303          ORR      r3,r12,r3             ;787
001d9e  ea4010c7          ORR      r0,r0,r7,LSL #7       ;787
001da2  f8dfc128          LDR      r12,|L1.7884|
001da6  b2c0              UXTB     r0,r0                 ;787
001da8  f81cc000          LDRB     r12,[r12,r0]          ;787
001dac  7228              STRB     r0,[r5,#8]            ;787
001dae  ea43070c          ORR      r7,r3,r12             ;787
001db2  5450              STRB     r0,[r2,r1]            ;787
001db4  f001be8f          B.W      |L1.15062|
001db8  4945              LDR      r1,|L1.7888|
001dba  0b02              LSRS     r2,r0,#12             ;788
001dbc  f8511022          LDR      r1,[r1,r2,LSL #2]     ;788
001dc0  4788              BLX      r1                    ;788
001dc2  1c61              ADDS     r1,r4,#1              ;788
001dc4  4680              MOV      r8,r0                 ;788
001dc6  b288              UXTH     r0,r1                 ;788
001dc8  f3c13203          UBFX     r2,r1,#12,#4          ;788
001dcc  4940              LDR      r1,|L1.7888|
001dce  f8511022          LDR      r1,[r1,r2,LSL #2]     ;788
001dd2  4788              BLX      r1                    ;788
001dd4  ea482000          ORR      r0,r8,r0,LSL #8       ;788
001dd8  1ca1              ADDS     r1,r4,#2              ;788
001dda  b28c              UXTH     r4,r1                 ;788
001ddc  4448              ADD      r0,r0,r9              ;788
001dde  b280              UXTH     r0,r0                 ;788
001de0  493b              LDR      r1,|L1.7888|
001de2  0b02              LSRS     r2,r0,#12             ;788
001de4  4680              MOV      r8,r0                 ;788
001de6  f8511022          LDR      r1,[r1,r2,LSL #2]     ;788
001dea  4788              BLX      r1                    ;788
001dec  0841              LSRS     r1,r0,#1              ;788
001dee  f0270283          BIC      r2,r7,#0x83           ;788
001df2  f0000001          AND      r0,r0,#1              ;788
001df6  4310              ORRS     r0,r0,r2              ;788
001df8  ea4111c7          ORR      r1,r1,r7,LSL #7       ;788
001dfc  4a33              LDR      r2,|L1.7884|
001dfe  b2c9              UXTB     r1,r1                 ;788
001e00  4b34              LDR      r3,|L1.7892|
001e02  5c52              LDRB     r2,[r2,r1]            ;788
001e04  7229              STRB     r1,[r5,#8]            ;788
001e06  ea400702          ORR      r7,r0,r2              ;788
001e0a  ea4f3218          LSR      r2,r8,#12             ;788
001e0e  4640              MOV      r0,r8                 ;788
001e10  f8532022          LDR      r2,[r3,r2,LSL #2]     ;788
001e14  4790              BLX      r2                    ;788
001e16  f001be5e          B.W      |L1.15062|
001e1a  9800              LDR      r0,[sp,#0]            ;792
001e1c  1c40              ADDS     r0,r0,#1              ;792
001e1e  b2c1              UXTB     r1,r0                 ;792
001e20  68e8              LDR      r0,[r5,#0xc]          ;792  ; pStack
001e22  5c47              LDRB     r7,[r0,r1]            ;792
001e24  1c49              ADDS     r1,r1,#1              ;792
001e26  b2c9              UXTB     r1,r1                 ;793
001e28  5c42              LDRB     r2,[r0,r1]            ;793
001e2a  1c49              ADDS     r1,r1,#1              ;793
001e2c  b2c9              UXTB     r1,r1                 ;794
001e2e  9100              STR      r1,[sp,#0]            ;794
001e30  f8100001          LDRB.W   r0,[r0,r1]            ;794
001e34  f3620407          BFI      r4,r2,#0,#8           ;793
                  |L1.7736|
001e38  f360240f          BFI      r4,r0,#8,#8           ;794
001e3c  f001be4b          B.W      |L1.15062|
001e40  9800              LDR      r0,[sp,#0]            ;799
001e42  1c40              ADDS     r0,r0,#1              ;799
001e44  b2c1              UXTB     r1,r0                 ;799
001e46  68e8              LDR      r0,[r5,#0xc]          ;799  ; pStack
001e48  5c42              LDRB     r2,[r0,r1]            ;799
001e4a  1c49              ADDS     r1,r1,#1              ;799
001e4c  b2c9              UXTB     r1,r1                 ;800
001e4e  9100              STR      r1,[sp,#0]            ;800
001e50  5c40              LDRB     r0,[r0,r1]            ;800
001e52  f3620407          BFI      r4,r2,#0,#8           ;799
001e56  f360240f          BFI      r4,r0,#8,#8           ;800
001e5a  1c60              ADDS     r0,r4,#1              ;801
                  |L1.7772|
001e5c  b284              UXTH     r4,r0                 ;801
001e5e  f001be3a          B.W      |L1.15062|
001e62  0b01              LSRS     r1,r0,#12             ;805
001e64  f8581021          LDR      r1,[r8,r1,LSL #2]     ;805
001e68  4788              BLX      r1                    ;805
001e6a  1c61              ADDS     r1,r4,#1              ;805
001e6c  b28c              UXTH     r4,r1                 ;805
001e6e  4448              ADD      r0,r0,r9              ;805
001e70  4915              LDR      r1,|L1.7880|
001e72  b2c0              UXTB     r0,r0                 ;805
001e74  5c0a              LDRB     r2,[r1,r0]            ;805
001e76  1c40              ADDS     r0,r0,#1              ;805
001e78  fa51f080          UXTAB    r0,r1,r0              ;805
001e7c  7800              LDRB     r0,[r0,#0]            ;805
001e7e  ea422000          ORR      r0,r2,r0,LSL #8       ;805
001e82  0b01              LSRS     r1,r0,#12             ;805
001e84  f8581021          LDR      r1,[r8,r1,LSL #2]     ;805
001e88  4788              BLX      r1                    ;805
001e8a  4601              MOV      r1,r0                 ;805
001e8c  7228              STRB     r0,[r5,#8]            ;805
001e8e  2201              MOVS     r2,#1                 ;805
001e90  1a70              SUBS     r0,r6,r1              ;805
001e92  43ba              BICS     r2,r2,r7              ;805
001e94  1a80              SUBS     r0,r0,r2              ;805
001e96  b282              UXTH     r2,r0                 ;805
001e98  4b0c              LDR      r3,|L1.7884|
001e9a  b2d0              UXTB     r0,r2                 ;805
001e9c  f0070c0c          AND      r12,r7,#0xc           ;805
001ea0  5c1b              LDRB     r3,[r3,r0]            ;805
001ea2  4071              EORS     r1,r1,r6              ;805
001ea4  ea43030c          ORR      r3,r3,r12             ;805
001ea8  ea800c06          EOR      r12,r0,r6             ;805
001eac  ea01010c          AND      r1,r1,r12             ;805
001eb0  f0110180          ANDS     r1,r1,#0x80           ;805
001eb4  bf18              IT       NE                    ;805
001eb6  2140              MOVNE    r1,#0x40              ;805
001eb8  0a12              LSRS     r2,r2,#8              ;805
001eba  bf0c              ITE      EQ                    ;805
001ebc  2201              MOVEQ    r2,#1                 ;805
001ebe  2200              MOVNE    r2,#0                 ;805
001ec0  4311              ORRS     r1,r1,r2              ;805
001ec2  ea430701          ORR      r7,r3,r1              ;805
001ec6  e007              B        |L1.7896|
                  |L1.7880|
                          DCD      ||.bss||
                  |L1.7884|
                          DCD      ||.constdata||+0x100
                  |L1.7888|
                          DCD      ||.bss||+0x800
                  |L1.7892|
                          DCD      ||.bss||+0x840
                  |L1.7896|
001ed8  f7febc23          B        |L1.1826|
001edc  0b01              LSRS     r1,r0,#12             ;806
001ede  f8581021          LDR      r1,[r8,r1,LSL #2]     ;806
001ee2  4788              BLX      r1                    ;806
001ee4  49f9              LDR      r1,|L1.8908|
001ee6  b280              UXTH     r0,r0                 ;806
001ee8  2201              MOVS     r2,#1                 ;806
001eea  5c09              LDRB     r1,[r1,r0]            ;806
001eec  1c60              ADDS     r0,r4,#1              ;806
001eee  b284              UXTH     r4,r0                 ;806
001ef0  1a70              SUBS     r0,r6,r1              ;806
001ef2  43ba              BICS     r2,r2,r7              ;806
001ef4  1a80              SUBS     r0,r0,r2              ;806
001ef6  b282              UXTH     r2,r0                 ;806
001ef8  4bf5              LDR      r3,|L1.8912|
001efa  b2d0              UXTB     r0,r2                 ;806
001efc  7229              STRB     r1,[r5,#8]            ;806
001efe  5c1b              LDRB     r3,[r3,r0]            ;806
001f00  f0070c0c          AND      r12,r7,#0xc           ;806
001f04  ea43030c          ORR      r3,r3,r12             ;806
001f08  4071              EORS     r1,r1,r6              ;806
001f0a  ea800c06          EOR      r12,r0,r6             ;806
001f0e  ea01010c          AND      r1,r1,r12             ;806
001f12  f0110180          ANDS     r1,r1,#0x80           ;806
001f16  bf18              IT       NE                    ;806
001f18  2140              MOVNE    r1,#0x40              ;806
001f1a  0a12              LSRS     r2,r2,#8              ;806
001f1c  d07e              BEQ      |L1.8220|
001f1e  e132              B        |L1.8582|
                  |L1.7968|
001f20  4311              ORRS     r1,r1,r2              ;806
001f22  ea430701          ORR      r7,r3,r1              ;806
001f26  4606              MOV      r6,r0                 ;806
001f28  f001bdd5          B.W      |L1.15062|
001f2c  0b01              LSRS     r1,r0,#12             ;808
001f2e  f8581021          LDR      r1,[r8,r1,LSL #2]     ;808
001f32  4788              BLX      r1                    ;808
001f34  4601              MOV      r1,r0                 ;808
001f36  7228              STRB     r0,[r5,#8]            ;808
001f38  1c60              ADDS     r0,r4,#1              ;808
001f3a  b284              UXTH     r4,r0                 ;808
001f3c  2201              MOVS     r2,#1                 ;808
001f3e  1a70              SUBS     r0,r6,r1              ;808
001f40  43ba              BICS     r2,r2,r7              ;808
001f42  1a80              SUBS     r0,r0,r2              ;808
001f44  b282              UXTH     r2,r0                 ;808
001f46  4be2              LDR      r3,|L1.8912|
001f48  b2d0              UXTB     r0,r2                 ;808
001f4a  f0070c0c          AND      r12,r7,#0xc           ;808
001f4e  5c1b              LDRB     r3,[r3,r0]            ;808
001f50  4071              EORS     r1,r1,r6              ;808
001f52  ea43030c          ORR      r3,r3,r12             ;808
001f56  ea800c06          EOR      r12,r0,r6             ;808
001f5a  ea01010c          AND      r1,r1,r12             ;808
001f5e  f0110180          ANDS     r1,r1,#0x80           ;808
001f62  bf18              IT       NE                    ;808
001f64  2140              MOVNE    r1,#0x40              ;808
001f66  0a12              LSRS     r2,r2,#8              ;808
001f68  d058              BEQ      |L1.8220|
001f6a  e10c              B        |L1.8582|
001f6c  49d9              LDR      r1,|L1.8916|
001f6e  0b02              LSRS     r2,r0,#12             ;809
001f70  f8511022          LDR      r1,[r1,r2,LSL #2]     ;809
001f74  4788              BLX      r1                    ;809
001f76  1c61              ADDS     r1,r4,#1              ;809
001f78  4680              MOV      r8,r0                 ;809
001f7a  b288              UXTH     r0,r1                 ;809
001f7c  f3c13203          UBFX     r2,r1,#12,#4          ;809
001f80  49d4              LDR      r1,|L1.8916|
001f82  f8511022          LDR      r1,[r1,r2,LSL #2]     ;809
001f86  4788              BLX      r1                    ;809
001f88  ea482000          ORR      r0,r8,r0,LSL #8       ;809
001f8c  49d1              LDR      r1,|L1.8916|
001f8e  0b02              LSRS     r2,r0,#12             ;809
001f90  f8511022          LDR      r1,[r1,r2,LSL #2]     ;809
001f94  4788              BLX      r1                    ;809
001f96  4601              MOV      r1,r0                 ;809
001f98  7228              STRB     r0,[r5,#8]            ;809
001f9a  1ca0              ADDS     r0,r4,#2              ;809
001f9c  b284              UXTH     r4,r0                 ;809
001f9e  2201              MOVS     r2,#1                 ;809
001fa0  1a70              SUBS     r0,r6,r1              ;809
001fa2  43ba              BICS     r2,r2,r7              ;809
001fa4  1a80              SUBS     r0,r0,r2              ;809
001fa6  b282              UXTH     r2,r0                 ;809
001fa8  4bc9              LDR      r3,|L1.8912|
001faa  b2d0              UXTB     r0,r2                 ;809
001fac  f0070c0c          AND      r12,r7,#0xc           ;809
001fb0  5c1b              LDRB     r3,[r3,r0]            ;809
001fb2  4071              EORS     r1,r1,r6              ;809
001fb4  ea43030c          ORR      r3,r3,r12             ;809
001fb8  ea800c06          EOR      r12,r0,r6             ;809
001fbc  ea01010c          AND      r1,r1,r12             ;809
001fc0  f0110180          ANDS     r1,r1,#0x80           ;809
001fc4  bf18              IT       NE                    ;809
001fc6  2140              MOVNE    r1,#0x40              ;809
001fc8  0a12              LSRS     r2,r2,#8              ;809
001fca  d027              BEQ      |L1.8220|
001fcc  e0db              B        |L1.8582|
001fce  0b01              LSRS     r1,r0,#12             ;810
001fd0  f8581021          LDR      r1,[r8,r1,LSL #2]     ;810
001fd4  4788              BLX      r1                    ;810
001fd6  49bd              LDR      r1,|L1.8908|
001fd8  7228              STRB     r0,[r5,#8]            ;810
001fda  5c0a              LDRB     r2,[r1,r0]            ;810
001fdc  1c40              ADDS     r0,r0,#1              ;810
001fde  fa51f080          UXTAB    r0,r1,r0              ;810
001fe2  7800              LDRB     r0,[r0,#0]            ;810
001fe4  ea422100          ORR      r1,r2,r0,LSL #8       ;810
001fe8  1c60              ADDS     r0,r4,#1              ;810
001fea  b284              UXTH     r4,r0                 ;810
001fec  eb01000a          ADD      r0,r1,r10             ;810
001ff0  b280              UXTH     r0,r0                 ;810
001ff2  0a02              LSRS     r2,r0,#8              ;810
001ff4  0a09              LSRS     r1,r1,#8              ;810
001ff6  428a              CMP      r2,r1                 ;810
001ff8  d002              BEQ      |L1.8192|
001ffa  6929              LDR      r1,[r5,#0x10]         ;810  ; nCPUCycle
001ffc  1c49              ADDS     r1,r1,#1              ;810
001ffe  6129              STR      r1,[r5,#0x10]         ;810  ; nCPUCycle
                  |L1.8192|
002000  0b01              LSRS     r1,r0,#12             ;810
002002  f8581021          LDR      r1,[r8,r1,LSL #2]     ;810
002006  4788              BLX      r1                    ;810
002008  4601              MOV      r1,r0                 ;810
00200a  7228              STRB     r0,[r5,#8]            ;810
00200c  2201              MOVS     r2,#1                 ;810
00200e  1a70              SUBS     r0,r6,r1              ;810
002010  43ba              BICS     r2,r2,r7              ;810
002012  1a80              SUBS     r0,r0,r2              ;810
002014  b282              UXTH     r2,r0                 ;810
002016  b2d0              UXTB     r0,r2                 ;810
002018  4bad              LDR      r3,|L1.8912|
00201a  e000              B        |L1.8222|
                  |L1.8220|
00201c  e08e              B        |L1.8508|
                  |L1.8222|
00201e  5c1b              LDRB     r3,[r3,r0]            ;810
002020  f0070c0c          AND      r12,r7,#0xc           ;810
002024  ea43030c          ORR      r3,r3,r12             ;810
002028  4071              EORS     r1,r1,r6              ;810
00202a  ea800c06          EOR      r12,r0,r6             ;810
00202e  ea01010c          AND      r1,r1,r12             ;810
002032  f0110180          ANDS     r1,r1,#0x80           ;810
002036  bf18              IT       NE                    ;810
002038  2140              MOVNE    r1,#0x40              ;810
00203a  0a12              LSRS     r2,r2,#8              ;810
00203c  d07e              BEQ      |L1.8508|
00203e  e0a2              B        |L1.8582|
002040  0b01              LSRS     r1,r0,#12             ;811
002042  f8581021          LDR      r1,[r8,r1,LSL #2]     ;811
002046  4788              BLX      r1                    ;811
002048  4448              ADD      r0,r0,r9              ;811
00204a  49a0              LDR      r1,|L1.8908|
00204c  b2c0              UXTB     r0,r0                 ;811
00204e  4ba0              LDR      r3,|L1.8912|
002050  5c0a              LDRB     r2,[r1,r0]            ;811
002052  1c60              ADDS     r0,r4,#1              ;811
002054  b284              UXTH     r4,r0                 ;811
002056  2101              MOVS     r1,#1                 ;811
002058  1ab0              SUBS     r0,r6,r2              ;811
00205a  43b9              BICS     r1,r1,r7              ;811
00205c  1a40              SUBS     r0,r0,r1              ;811
00205e  b281              UXTH     r1,r0                 ;811
002060  b2c8              UXTB     r0,r1                 ;811
002062  722a              STRB     r2,[r5,#8]            ;811
002064  5c1b              LDRB     r3,[r3,r0]            ;811
002066  f0070c0c          AND      r12,r7,#0xc           ;811
00206a  ea43030c          ORR      r3,r3,r12             ;811
00206e  4072              EORS     r2,r2,r6              ;811
002070  ea800c06          EOR      r12,r0,r6             ;811
002074  ea02020c          AND      r2,r2,r12             ;811
002078  f0120280          ANDS     r2,r2,#0x80           ;811
00207c  bf18              IT       NE                    ;811
00207e  2240              MOVNE    r2,#0x40              ;811
002080  0a09              LSRS     r1,r1,#8              ;811
002082  bf0c              ITE      EQ                    ;811
002084  2101              MOVEQ    r1,#1                 ;811
002086  2100              MOVNE    r1,#0                 ;811
002088  4311              ORRS     r1,r1,r2              ;811
00208a  ea430701          ORR      r7,r3,r1              ;811
00208e  4606              MOV      r6,r0                 ;811
002090  f001bd21          B.W      |L1.15062|
002094  498f              LDR      r1,|L1.8916|
002096  0b02              LSRS     r2,r0,#12             ;812
002098  f8511022          LDR      r1,[r1,r2,LSL #2]     ;812
00209c  4788              BLX      r1                    ;812
00209e  1c61              ADDS     r1,r4,#1              ;812
0020a0  4680              MOV      r8,r0                 ;812
0020a2  b288              UXTH     r0,r1                 ;812
0020a4  f3c13203          UBFX     r2,r1,#12,#4          ;812
0020a8  498a              LDR      r1,|L1.8916|
0020aa  f8511022          LDR      r1,[r1,r2,LSL #2]     ;812
0020ae  4788              BLX      r1                    ;812
0020b0  ea482100          ORR      r1,r8,r0,LSL #8       ;812
0020b4  eb01000a          ADD      r0,r1,r10             ;812
0020b8  1ca2              ADDS     r2,r4,#2              ;812
0020ba  b280              UXTH     r0,r0                 ;812
0020bc  b294              UXTH     r4,r2                 ;812
0020be  f3c12107          UBFX     r1,r1,#8,#8           ;812
0020c2  0a02              LSRS     r2,r0,#8              ;812
0020c4  4291              CMP      r1,r2                 ;812
0020c6  d002              BEQ      |L1.8398|
0020c8  6929              LDR      r1,[r5,#0x10]         ;812  ; nCPUCycle
0020ca  1c49              ADDS     r1,r1,#1              ;812
0020cc  6129              STR      r1,[r5,#0x10]         ;812  ; nCPUCycle
                  |L1.8398|
0020ce  4981              LDR      r1,|L1.8916|
0020d0  0b02              LSRS     r2,r0,#12             ;812
0020d2  f8511022          LDR      r1,[r1,r2,LSL #2]     ;812
0020d6  4788              BLX      r1                    ;812
0020d8  4601              MOV      r1,r0                 ;812
0020da  7228              STRB     r0,[r5,#8]            ;812
0020dc  2201              MOVS     r2,#1                 ;812
0020de  1a70              SUBS     r0,r6,r1              ;812
0020e0  43ba              BICS     r2,r2,r7              ;812
0020e2  1a80              SUBS     r0,r0,r2              ;812
0020e4  b282              UXTH     r2,r0                 ;812
0020e6  4b7a              LDR      r3,|L1.8912|
0020e8  b2d0              UXTB     r0,r2                 ;812
0020ea  f0070c0c          AND      r12,r7,#0xc           ;812
0020ee  5c1b              LDRB     r3,[r3,r0]            ;812
0020f0  4071              EORS     r1,r1,r6              ;812
0020f2  ea43030c          ORR      r3,r3,r12             ;812
0020f6  ea800c06          EOR      r12,r0,r6             ;812
0020fa  ea01010c          AND      r1,r1,r12             ;812
0020fe  f0110180          ANDS     r1,r1,#0x80           ;812
002102  bf18              IT       NE                    ;812
002104  2140              MOVNE    r1,#0x40              ;812
002106  0a12              LSRS     r2,r2,#8              ;812
002108  d03f              BEQ      |L1.8586|
00210a  e03c              B        |L1.8582|
00210c  4971              LDR      r1,|L1.8916|
00210e  0b02              LSRS     r2,r0,#12             ;813
002110  f8511022          LDR      r1,[r1,r2,LSL #2]     ;813
002114  4788              BLX      r1                    ;813
002116  1c61              ADDS     r1,r4,#1              ;813
002118  4680              MOV      r8,r0                 ;813
00211a  b288              UXTH     r0,r1                 ;813
00211c  f3c13203          UBFX     r2,r1,#12,#4          ;813
002120  496c              LDR      r1,|L1.8916|
002122  f8511022          LDR      r1,[r1,r2,LSL #2]     ;813
002126  4788              BLX      r1                    ;813
002128  ea482100          ORR      r1,r8,r0,LSL #8       ;813
00212c  eb010009          ADD      r0,r1,r9              ;813
002130  1ca2              ADDS     r2,r4,#2              ;813
002132  b280              UXTH     r0,r0                 ;813
002134  b294              UXTH     r4,r2                 ;813
002136  f3c12107          UBFX     r1,r1,#8,#8           ;813
00213a  e000              B        |L1.8510|
                  |L1.8508|
00213c  e025              B        |L1.8586|
                  |L1.8510|
00213e  0a02              LSRS     r2,r0,#8              ;813
002140  4291              CMP      r1,r2                 ;813
002142  d002              BEQ      |L1.8522|
002144  6929              LDR      r1,[r5,#0x10]         ;813  ; nCPUCycle
002146  1c49              ADDS     r1,r1,#1              ;813
002148  6129              STR      r1,[r5,#0x10]         ;813  ; nCPUCycle
                  |L1.8522|
00214a  4962              LDR      r1,|L1.8916|
00214c  0b02              LSRS     r2,r0,#12             ;813
00214e  f8511022          LDR      r1,[r1,r2,LSL #2]     ;813
002152  4788              BLX      r1                    ;813
002154  4601              MOV      r1,r0                 ;813
002156  7228              STRB     r0,[r5,#8]            ;813
002158  2201              MOVS     r2,#1                 ;813
00215a  1a70              SUBS     r0,r6,r1              ;813
00215c  43ba              BICS     r2,r2,r7              ;813
00215e  1a80              SUBS     r0,r0,r2              ;813
002160  b282              UXTH     r2,r0                 ;813
002162  4b5b              LDR      r3,|L1.8912|
002164  b2d0              UXTB     r0,r2                 ;813
002166  f0070c0c          AND      r12,r7,#0xc           ;813
00216a  5c1b              LDRB     r3,[r3,r0]            ;813
00216c  4071              EORS     r1,r1,r6              ;813
00216e  ea43030c          ORR      r3,r3,r12             ;813
002172  ea800c06          EOR      r12,r0,r6             ;813
002176  ea01010c          AND      r1,r1,r12             ;813
00217a  f0110180          ANDS     r1,r1,#0x80           ;813
00217e  bf18              IT       NE                    ;813
002180  2140              MOVNE    r1,#0x40              ;813
002182  0a12              LSRS     r2,r2,#8              ;813
002184  d001              BEQ      |L1.8586|
                  |L1.8582|
002186  2200              MOVS     r2,#0                 ;813
002188  e6ca              B        |L1.7968|
                  |L1.8586|
00218a  2201              MOVS     r2,#1                 ;813
00218c  e6c8              B        |L1.7968|
00218e  0b01              LSRS     r1,r0,#12             ;816
002190  f8581021          LDR      r1,[r8,r1,LSL #2]     ;816
002194  4788              BLX      r1                    ;816
002196  1c61              ADDS     r1,r4,#1              ;816
002198  b28c              UXTH     r4,r1                 ;816
00219a  4448              ADD      r0,r0,r9              ;816
00219c  494b              LDR      r1,|L1.8908|
00219e  b2c0              UXTB     r0,r0                 ;816
0021a0  5c0a              LDRB     r2,[r1,r0]            ;816
0021a2  1c40              ADDS     r0,r0,#1              ;816
0021a4  fa51f080          UXTAB    r0,r1,r0              ;816
0021a8  7800              LDRB     r0,[r0,#0]            ;816
0021aa  722e              STRB     r6,[r5,#8]            ;816
0021ac  ea422000          ORR      r0,r2,r0,LSL #8       ;816
0021b0  4a49              LDR      r2,|L1.8920|
0021b2  0b01              LSRS     r1,r0,#12             ;816
0021b4  f8522021          LDR      r2,[r2,r1,LSL #2]     ;816
0021b8  4631              MOV      r1,r6                 ;816
0021ba  f001bbe6          B.W      |L1.14730|
0021be  0b01              LSRS     r1,r0,#12             ;817
0021c0  f8581021          LDR      r1,[r8,r1,LSL #2]     ;817
0021c4  4788              BLX      r1                    ;817
0021c6  1c61              ADDS     r1,r4,#1              ;817
0021c8  b28c              UXTH     r4,r1                 ;817
0021ca  4940              LDR      r1,|L1.8908|
0021cc  722e              STRB     r6,[r5,#8]            ;817
0021ce  540e              STRB     r6,[r1,r0]            ;817
0021d0  f001bc81          B.W      |L1.15062|
0021d4  493f              LDR      r1,|L1.8916|
0021d6  0b02              LSRS     r2,r0,#12             ;818
0021d8  f8511022          LDR      r1,[r1,r2,LSL #2]     ;818
0021dc  4788              BLX      r1                    ;818
0021de  1c61              ADDS     r1,r4,#1              ;818
0021e0  4680              MOV      r8,r0                 ;818
0021e2  b288              UXTH     r0,r1                 ;818
0021e4  f3c13203          UBFX     r2,r1,#12,#4          ;818
0021e8  493a              LDR      r1,|L1.8916|
0021ea  f8511022          LDR      r1,[r1,r2,LSL #2]     ;818
0021ee  4788              BLX      r1                    ;818
0021f0  1ca1              ADDS     r1,r4,#2              ;818
0021f2  ea482000          ORR      r0,r8,r0,LSL #8       ;818
0021f6  b28c              UXTH     r4,r1                 ;818
0021f8  4a37              LDR      r2,|L1.8920|
0021fa  0b01              LSRS     r1,r0,#12             ;818
0021fc  722e              STRB     r6,[r5,#8]            ;818
0021fe  f8522021          LDR      r2,[r2,r1,LSL #2]     ;818
002202  4631              MOV      r1,r6                 ;818
002204  f001bbc1          B.W      |L1.14730|
002208  0b01              LSRS     r1,r0,#12             ;819
00220a  f8581021          LDR      r1,[r8,r1,LSL #2]     ;819
00220e  4788              BLX      r1                    ;819
002210  492e              LDR      r1,|L1.8908|
002212  b282              UXTH     r2,r0                 ;819
002214  1c40              ADDS     r0,r0,#1              ;819
002216  5c8a              LDRB     r2,[r1,r2]            ;819
002218  fa51f080          UXTAB    r0,r1,r0              ;819
00221c  7800              LDRB     r0,[r0,#0]            ;819
00221e  1c61              ADDS     r1,r4,#1              ;819
002220  ea422000          ORR      r0,r2,r0,LSL #8       ;819
002224  4450              ADD      r0,r0,r10             ;819
002226  b280              UXTH     r0,r0                 ;819
002228  b28c              UXTH     r4,r1                 ;819
00222a  4a2b              LDR      r2,|L1.8920|
00222c  0b01              LSRS     r1,r0,#12             ;819
00222e  722e              STRB     r6,[r5,#8]            ;819
002230  f8522021          LDR      r2,[r2,r1,LSL #2]     ;819
002234  4631              MOV      r1,r6                 ;819
002236  f001bba8          B.W      |L1.14730|
00223a  0b01              LSRS     r1,r0,#12             ;820
00223c  f8581021          LDR      r1,[r8,r1,LSL #2]     ;820
002240  4788              BLX      r1                    ;820
002242  eb000109          ADD      r1,r0,r9              ;820
002246  f3610007          BFI      r0,r1,#0,#8           ;820
00224a  1c61              ADDS     r1,r4,#1              ;820
00224c  b28c              UXTH     r4,r1                 ;820
00224e  491f              LDR      r1,|L1.8908|
002250  b280              UXTH     r0,r0                 ;820
002252  722e              STRB     r6,[r5,#8]            ;820
002254  540e              STRB     r6,[r1,r0]            ;820
002256  f001bc3e          B.W      |L1.15062|
00225a  491e              LDR      r1,|L1.8916|
00225c  0b02              LSRS     r2,r0,#12             ;821
00225e  f8511022          LDR      r1,[r1,r2,LSL #2]     ;821
002262  4788              BLX      r1                    ;821
002264  1c61              ADDS     r1,r4,#1              ;821
002266  4680              MOV      r8,r0                 ;821
002268  b288              UXTH     r0,r1                 ;821
00226a  f3c13203          UBFX     r2,r1,#12,#4          ;821
00226e  4919              LDR      r1,|L1.8916|
002270  f8511022          LDR      r1,[r1,r2,LSL #2]     ;821
002274  4788              BLX      r1                    ;821
002276  ea482000          ORR      r0,r8,r0,LSL #8       ;821
00227a  1ca1              ADDS     r1,r4,#2              ;821
00227c  4450              ADD      r0,r0,r10             ;821
00227e  b28c              UXTH     r4,r1                 ;821
002280  b280              UXTH     r0,r0                 ;821
002282  4a15              LDR      r2,|L1.8920|
002284  0b01              LSRS     r1,r0,#12             ;821
002286  722e              STRB     r6,[r5,#8]            ;821
002288  f8522021          LDR      r2,[r2,r1,LSL #2]     ;821
00228c  4631              MOV      r1,r6                 ;821
00228e  f001bb7c          B.W      |L1.14730|
002292  4910              LDR      r1,|L1.8916|
002294  0b02              LSRS     r2,r0,#12             ;822
002296  f8511022          LDR      r1,[r1,r2,LSL #2]     ;822
00229a  4788              BLX      r1                    ;822
00229c  4680              MOV      r8,r0                 ;822
00229e  1c60              ADDS     r0,r4,#1              ;822
0022a0  b282              UXTH     r2,r0                 ;822
0022a2  f3c03103          UBFX     r1,r0,#12,#4          ;822
0022a6  480b              LDR      r0,|L1.8916|
0022a8  f8501021          LDR      r1,[r0,r1,LSL #2]     ;822
0022ac  4610              MOV      r0,r2                 ;822
0022ae  4788              BLX      r1                    ;822
0022b0  ea482000          ORR      r0,r8,r0,LSL #8       ;822
0022b4  1ca1              ADDS     r1,r4,#2              ;822
0022b6  4448              ADD      r0,r0,r9              ;822
0022b8  b28c              UXTH     r4,r1                 ;822
0022ba  b280              UXTH     r0,r0                 ;822
0022bc  4a06              LDR      r2,|L1.8920|
0022be  0b01              LSRS     r1,r0,#12             ;822
0022c0  722e              STRB     r6,[r5,#8]            ;822
0022c2  f8522021          LDR      r2,[r2,r1,LSL #2]     ;822
0022c6  4631              MOV      r1,r6                 ;822
0022c8  f001bb5f          B.W      |L1.14730|
                  |L1.8908|
                          DCD      ||.bss||
                  |L1.8912|
                          DCD      ||.constdata||+0x100
                  |L1.8916|
                          DCD      ||.bss||+0x800
                  |L1.8920|
                          DCD      ||.bss||+0x840
0022dc  0b01              LSRS     r1,r0,#12             ;825
0022de  f8581021          LDR      r1,[r8,r1,LSL #2]     ;825
0022e2  4788              BLX      r1                    ;825
0022e4  1c61              ADDS     r1,r4,#1              ;825
0022e6  b28c              UXTH     r4,r1                 ;825
0022e8  49fa              LDR      r1,|L1.9940|
0022ea  f8859008          STRB     r9,[r5,#8]            ;825
0022ee  f8019000          STRB     r9,[r1,r0]            ;825
0022f2  f001bbf0          B.W      |L1.15062|
0022f6  49f8              LDR      r1,|L1.9944|
0022f8  0b02              LSRS     r2,r0,#12             ;826
0022fa  f8511022          LDR      r1,[r1,r2,LSL #2]     ;826
0022fe  4788              BLX      r1                    ;826
002300  1c61              ADDS     r1,r4,#1              ;826
002302  4680              MOV      r8,r0                 ;826
002304  b288              UXTH     r0,r1                 ;826
002306  f3c13203          UBFX     r2,r1,#12,#4          ;826
00230a  49f3              LDR      r1,|L1.9944|
00230c  f8511022          LDR      r1,[r1,r2,LSL #2]     ;826
002310  4788              BLX      r1                    ;826
002312  1ca1              ADDS     r1,r4,#2              ;826
002314  ea482000          ORR      r0,r8,r0,LSL #8       ;826
002318  b28c              UXTH     r4,r1                 ;826
00231a  4af0              LDR      r2,|L1.9948|
00231c  0b01              LSRS     r1,r0,#12             ;826
00231e  f8859008          STRB     r9,[r5,#8]            ;826
002322  f8522021          LDR      r2,[r2,r1,LSL #2]     ;826
002326  4649              MOV      r1,r9                 ;826
002328  f001bb2f          B.W      |L1.14730|
00232c  0b01              LSRS     r1,r0,#12             ;827
00232e  f8581021          LDR      r1,[r8,r1,LSL #2]     ;827
002332  4788              BLX      r1                    ;827
002334  eb00010a          ADD      r1,r0,r10             ;827
002338  f3610007          BFI      r0,r1,#0,#8           ;827
00233c  1c61              ADDS     r1,r4,#1              ;827
00233e  b28c              UXTH     r4,r1                 ;827
002340  49e4              LDR      r1,|L1.9940|
002342  b280              UXTH     r0,r0                 ;827
002344  f8859008          STRB     r9,[r5,#8]            ;827
002348  f8019000          STRB     r9,[r1,r0]            ;827
00234c  f001bbc3          B.W      |L1.15062|
002350  0b01              LSRS     r1,r0,#12             ;830
002352  f8581021          LDR      r1,[r8,r1,LSL #2]     ;830
002356  4788              BLX      r1                    ;830
002358  1c61              ADDS     r1,r4,#1              ;830
00235a  b28c              UXTH     r4,r1                 ;830
00235c  49dd              LDR      r1,|L1.9940|
00235e  f885a008          STRB     r10,[r5,#8]           ;830
002362  f801a000          STRB     r10,[r1,r0]           ;830
002366  f001bbb6          B.W      |L1.15062|
00236a  49db              LDR      r1,|L1.9944|
00236c  0b02              LSRS     r2,r0,#12             ;831
00236e  f8511022          LDR      r1,[r1,r2,LSL #2]     ;831
002372  4788              BLX      r1                    ;831
002374  4680              MOV      r8,r0                 ;831
002376  1c60              ADDS     r0,r4,#1              ;831
002378  b282              UXTH     r2,r0                 ;831
00237a  f3c03103          UBFX     r1,r0,#12,#4          ;831
00237e  48d6              LDR      r0,|L1.9944|
002380  f8501021          LDR      r1,[r0,r1,LSL #2]     ;831
002384  4610              MOV      r0,r2                 ;831
002386  4788              BLX      r1                    ;831
002388  1ca1              ADDS     r1,r4,#2              ;831
00238a  ea482000          ORR      r0,r8,r0,LSL #8       ;831
00238e  b28c              UXTH     r4,r1                 ;831
002390  4ad2              LDR      r2,|L1.9948|
002392  0b01              LSRS     r1,r0,#12             ;831
002394  f885a008          STRB     r10,[r5,#8]           ;831
002398  f8522021          LDR      r2,[r2,r1,LSL #2]     ;831
00239c  4651              MOV      r1,r10                ;831
00239e  f001baf4          B.W      |L1.14730|
0023a2  0b01              LSRS     r1,r0,#12             ;832
0023a4  f8581021          LDR      r1,[r8,r1,LSL #2]     ;832
0023a8  4788              BLX      r1                    ;832
0023aa  eb000109          ADD      r1,r0,r9              ;832
0023ae  f3610007          BFI      r0,r1,#0,#8           ;832
0023b2  1c61              ADDS     r1,r4,#1              ;832
0023b4  b28c              UXTH     r4,r1                 ;832
0023b6  49c7              LDR      r1,|L1.9940|
0023b8  b280              UXTH     r0,r0                 ;832
0023ba  f885a008          STRB     r10,[r5,#8]           ;832
0023be  f801a000          STRB     r10,[r1,r0]           ;832
0023c2  f001bb88          B.W      |L1.15062|
0023c6  79e9              LDRB     r1,[r5,#7]            ;838  ; bIgnoreIllegalOps
0023c8  2900              CMP      r1,#0                 ;838
0023ca  f0418384          BNE.W    |L1.15062|
0023ce  0b01              LSRS     r1,r0,#12             ;838
0023d0  f8581021          LDR      r1,[r8,r1,LSL #2]     ;838
0023d4  4788              BLX      r1                    ;838
0023d6  1c61              ADDS     r1,r4,#1              ;838
0023d8  b28c              UXTH     r4,r1                 ;838
0023da  4448              ADD      r0,r0,r9              ;838
0023dc  49bd              LDR      r1,|L1.9940|
0023de  b2c0              UXTB     r0,r0                 ;838
0023e0  5c0a              LDRB     r2,[r1,r0]            ;838
0023e2  1c40              ADDS     r0,r0,#1              ;838
0023e4  fa51f080          UXTAB    r0,r1,r0              ;838
0023e8  7800              LDRB     r0,[r0,#0]            ;838
0023ea  ea422000          ORR      r0,r2,r0,LSL #8       ;838
0023ee  0b01              LSRS     r1,r0,#12             ;838
0023f0  9002              STR      r0,[sp,#8]            ;838
0023f2  f8581021          LDR      r1,[r8,r1,LSL #2]     ;838
0023f6  4788              BLX      r1                    ;838
0023f8  0040              LSLS     r0,r0,#1              ;838
0023fa  b2c1              UXTB     r1,r0                 ;838
0023fc  4ab8              LDR      r2,|L1.9952|
0023fe  430e              ORRS     r6,r6,r1              ;838
002400  f3c02007          UBFX     r0,r0,#8,#8           ;838
002404  5d92              LDRB     r2,[r2,r6]            ;838
002406  7229              STRB     r1,[r5,#8]            ;838
002408  4310              ORRS     r0,r0,r2              ;838
00240a  f0270283          BIC      r2,r7,#0x83           ;838
00240e  ea400702          ORR      r7,r0,r2              ;838
002412  9802              LDR      r0,[sp,#8]            ;838
002414  4bb1              LDR      r3,|L1.9948|
002416  0b02              LSRS     r2,r0,#12             ;838
002418  f8532022          LDR      r2,[r3,r2,LSL #2]     ;838
00241c  4790              BLX      r2                    ;838
00241e  f001bb5a          B.W      |L1.15062|
002422  79e9              LDRB     r1,[r5,#7]            ;839  ; bIgnoreIllegalOps
002424  2900              CMP      r1,#0                 ;839
002426  f0418356          BNE.W    |L1.15062|
00242a  0b01              LSRS     r1,r0,#12             ;839
00242c  f8581021          LDR      r1,[r8,r1,LSL #2]     ;839
002430  4788              BLX      r1                    ;839
002432  4ba8              LDR      r3,|L1.9940|
002434  1c61              ADDS     r1,r4,#1              ;839
002436  b28c              UXTH     r4,r1                 ;839
002438  5c19              LDRB     r1,[r3,r0]            ;839
00243a  f8dfc2a4          LDR      r12,|L1.9952|
00243e  004a              LSLS     r2,r1,#1              ;839
002440  b2d1              UXTB     r1,r2                 ;839
002442  430e              ORRS     r6,r6,r1              ;839
002444  f81cc006          LDRB     r12,[r12,r6]          ;839
002448  7229              STRB     r1,[r5,#8]            ;839
00244a  ea4c2212          ORR      r2,r12,r2,LSR #8      ;839
00244e  f0270c83          BIC      r12,r7,#0x83          ;839
002452  ea42070c          ORR      r7,r2,r12             ;839
002456  5419              STRB     r1,[r3,r0]            ;839
002458  f001bb3d          B.W      |L1.15062|
00245c  79e9              LDRB     r1,[r5,#7]            ;840  ; bIgnoreIllegalOps
00245e  2900              CMP      r1,#0                 ;840
002460  f0418339          BNE.W    |L1.15062|
002464  499c              LDR      r1,|L1.9944|
002466  0b02              LSRS     r2,r0,#12             ;840
002468  f8511022          LDR      r1,[r1,r2,LSL #2]     ;840
00246c  4788              BLX      r1                    ;840
00246e  1c61              ADDS     r1,r4,#1              ;840
002470  4680              MOV      r8,r0                 ;840
002472  b288              UXTH     r0,r1                 ;840
002474  f3c13203          UBFX     r2,r1,#12,#4          ;840
002478  4997              LDR      r1,|L1.9944|
00247a  f8511022          LDR      r1,[r1,r2,LSL #2]     ;840
00247e  4788              BLX      r1                    ;840
002480  1ca1              ADDS     r1,r4,#2              ;840
002482  b28c              UXTH     r4,r1                 ;840
002484  ea482000          ORR      r0,r8,r0,LSL #8       ;840
002488  4993              LDR      r1,|L1.9944|
00248a  0b02              LSRS     r2,r0,#12             ;840
00248c  4680              MOV      r8,r0                 ;840
00248e  f8511022          LDR      r1,[r1,r2,LSL #2]     ;840
002492  4788              BLX      r1                    ;840
002494  0040              LSLS     r0,r0,#1              ;840
002496  b2c1              UXTB     r1,r0                 ;840
002498  4a91              LDR      r2,|L1.9952|
00249a  430e              ORRS     r6,r6,r1              ;840
00249c  f3c02007          UBFX     r0,r0,#8,#8           ;840
0024a0  5d92              LDRB     r2,[r2,r6]            ;840
0024a2  4b8e              LDR      r3,|L1.9948|
0024a4  4310              ORRS     r0,r0,r2              ;840
0024a6  f0270283          BIC      r2,r7,#0x83           ;840
0024aa  ea400702          ORR      r7,r0,r2              ;840
0024ae  fa1ff088          UXTH     r0,r8                 ;840
0024b2  0b02              LSRS     r2,r0,#12             ;840
0024b4  7229              STRB     r1,[r5,#8]            ;840
0024b6  f8532022          LDR      r2,[r3,r2,LSL #2]     ;840
0024ba  4790              BLX      r2                    ;840
0024bc  f001bb0b          B.W      |L1.15062|
0024c0  79e9              LDRB     r1,[r5,#7]            ;841  ; bIgnoreIllegalOps
0024c2  2900              CMP      r1,#0                 ;841
0024c4  f0418307          BNE.W    |L1.15062|
0024c8  0b01              LSRS     r1,r0,#12             ;841
0024ca  f8581021          LDR      r1,[r8,r1,LSL #2]     ;841
0024ce  4788              BLX      r1                    ;841
0024d0  4980              LDR      r1,|L1.9940|
0024d2  b282              UXTH     r2,r0                 ;841
0024d4  1c40              ADDS     r0,r0,#1              ;841
0024d6  5c8a              LDRB     r2,[r1,r2]            ;841
0024d8  fa51f080          UXTAB    r0,r1,r0              ;841
0024dc  7800              LDRB     r0,[r0,#0]            ;841
0024de  1c61              ADDS     r1,r4,#1              ;841
0024e0  ea422000          ORR      r0,r2,r0,LSL #8       ;841
0024e4  4450              ADD      r0,r0,r10             ;841
0024e6  b280              UXTH     r0,r0                 ;841
0024e8  b28c              UXTH     r4,r1                 ;841
0024ea  0b01              LSRS     r1,r0,#12             ;841
0024ec  9002              STR      r0,[sp,#8]            ;841
0024ee  f8581021          LDR      r1,[r8,r1,LSL #2]     ;841
0024f2  4788              BLX      r1                    ;841
0024f4  0040              LSLS     r0,r0,#1              ;841
0024f6  b2c1              UXTB     r1,r0                 ;841
0024f8  4a79              LDR      r2,|L1.9952|
0024fa  430e              ORRS     r6,r6,r1              ;841
0024fc  f3c02007          UBFX     r0,r0,#8,#8           ;841
002500  5d92              LDRB     r2,[r2,r6]            ;841
002502  7229              STRB     r1,[r5,#8]            ;841
002504  4310              ORRS     r0,r0,r2              ;841
002506  f0270283          BIC      r2,r7,#0x83           ;841
00250a  ea400702          ORR      r7,r0,r2              ;841
00250e  9802              LDR      r0,[sp,#8]            ;841
002510  4b72              LDR      r3,|L1.9948|
002512  0b02              LSRS     r2,r0,#12             ;841
002514  f8532022          LDR      r2,[r3,r2,LSL #2]     ;841
002518  4790              BLX      r2                    ;841
00251a  f001badc          B.W      |L1.15062|
00251e  79e9              LDRB     r1,[r5,#7]            ;842  ; bIgnoreIllegalOps
002520  2900              CMP      r1,#0                 ;842
002522  f04182d8          BNE.W    |L1.15062|
002526  0b01              LSRS     r1,r0,#12             ;842
002528  f8581021          LDR      r1,[r8,r1,LSL #2]     ;842
00252c  4788              BLX      r1                    ;842
00252e  eb000109          ADD      r1,r0,r9              ;842
002532  f3610007          BFI      r0,r1,#0,#8           ;842
002536  4b67              LDR      r3,|L1.9940|
002538  b282              UXTH     r2,r0                 ;842
00253a  1c61              ADDS     r1,r4,#1              ;842
00253c  5c98              LDRB     r0,[r3,r2]            ;842
00253e  b28c              UXTH     r4,r1                 ;842
002540  0041              LSLS     r1,r0,#1              ;842
002542  b2c8              UXTB     r0,r1                 ;842
002544  f8dfc198          LDR      r12,|L1.9952|
002548  4306              ORRS     r6,r6,r0              ;842
00254a  f81cc006          LDRB     r12,[r12,r6]          ;842
00254e  7228              STRB     r0,[r5,#8]            ;842
002550  ea4c2111          ORR      r1,r12,r1,LSR #8      ;842
002554  f0270c83          BIC      r12,r7,#0x83          ;842
002558  ea41070c          ORR      r7,r1,r12             ;842
00255c  f000beb4          B.W      |L1.13000|
002560  79e9              LDRB     r1,[r5,#7]            ;843  ; bIgnoreIllegalOps
002562  2900              CMP      r1,#0                 ;843
002564  f04182b7          BNE.W    |L1.15062|
002568  495b              LDR      r1,|L1.9944|
00256a  0b02              LSRS     r2,r0,#12             ;843
00256c  f8511022          LDR      r1,[r1,r2,LSL #2]     ;843
002570  4788              BLX      r1                    ;843
002572  1c61              ADDS     r1,r4,#1              ;843
002574  4680              MOV      r8,r0                 ;843
002576  b288              UXTH     r0,r1                 ;843
002578  f3c13203          UBFX     r2,r1,#12,#4          ;843
00257c  4956              LDR      r1,|L1.9944|
00257e  f8511022          LDR      r1,[r1,r2,LSL #2]     ;843
002582  4788              BLX      r1                    ;843
002584  ea482000          ORR      r0,r8,r0,LSL #8       ;843
002588  1ca1              ADDS     r1,r4,#2              ;843
00258a  b28c              UXTH     r4,r1                 ;843
00258c  4450              ADD      r0,r0,r10             ;843
00258e  b280              UXTH     r0,r0                 ;843
002590  4951              LDR      r1,|L1.9944|
002592  0b02              LSRS     r2,r0,#12             ;843
002594  4680              MOV      r8,r0                 ;843
002596  f8511022          LDR      r1,[r1,r2,LSL #2]     ;843
00259a  4788              BLX      r1                    ;843
00259c  0040              LSLS     r0,r0,#1              ;843
00259e  b2c1              UXTB     r1,r0                 ;843
0025a0  4a4f              LDR      r2,|L1.9952|
0025a2  430e              ORRS     r6,r6,r1              ;843
0025a4  f3c02007          UBFX     r0,r0,#8,#8           ;843
0025a8  5d92              LDRB     r2,[r2,r6]            ;843
0025aa  4b4c              LDR      r3,|L1.9948|
0025ac  4310              ORRS     r0,r0,r2              ;843
0025ae  f0270283          BIC      r2,r7,#0x83           ;843
0025b2  ea400702          ORR      r7,r0,r2              ;843
0025b6  ea4f3218          LSR      r2,r8,#12             ;843
0025ba  7229              STRB     r1,[r5,#8]            ;843
0025bc  f8532022          LDR      r2,[r3,r2,LSL #2]     ;843
0025c0  4640              MOV      r0,r8                 ;843
0025c2  4790              BLX      r2                    ;843
0025c4  f001ba87          B.W      |L1.15062|
0025c8  79e9              LDRB     r1,[r5,#7]            ;844  ; bIgnoreIllegalOps
0025ca  2900              CMP      r1,#0                 ;844
0025cc  f0418283          BNE.W    |L1.15062|
0025d0  4941              LDR      r1,|L1.9944|
0025d2  0b02              LSRS     r2,r0,#12             ;844
0025d4  f8511022          LDR      r1,[r1,r2,LSL #2]     ;844
0025d8  4788              BLX      r1                    ;844
0025da  1c61              ADDS     r1,r4,#1              ;844
0025dc  4680              MOV      r8,r0                 ;844
0025de  b288              UXTH     r0,r1                 ;844
0025e0  f3c13203          UBFX     r2,r1,#12,#4          ;844
0025e4  493c              LDR      r1,|L1.9944|
0025e6  f8511022          LDR      r1,[r1,r2,LSL #2]     ;844
0025ea  4788              BLX      r1                    ;844
0025ec  ea482000          ORR      r0,r8,r0,LSL #8       ;844
0025f0  1ca1              ADDS     r1,r4,#2              ;844
0025f2  b28c              UXTH     r4,r1                 ;844
0025f4  4448              ADD      r0,r0,r9              ;844
0025f6  b280              UXTH     r0,r0                 ;844
0025f8  4937              LDR      r1,|L1.9944|
0025fa  0b02              LSRS     r2,r0,#12             ;844
0025fc  4680              MOV      r8,r0                 ;844
0025fe  f8511022          LDR      r1,[r1,r2,LSL #2]     ;844
002602  4788              BLX      r1                    ;844
002604  0040              LSLS     r0,r0,#1              ;844
002606  b2c1              UXTB     r1,r0                 ;844
002608  4a35              LDR      r2,|L1.9952|
00260a  430e              ORRS     r6,r6,r1              ;844
00260c  f3c02007          UBFX     r0,r0,#8,#8           ;844
002610  5d92              LDRB     r2,[r2,r6]            ;844
002612  4b32              LDR      r3,|L1.9948|
002614  4310              ORRS     r0,r0,r2              ;844
002616  f0270283          BIC      r2,r7,#0x83           ;844
00261a  ea400702          ORR      r7,r0,r2              ;844
00261e  ea4f3218          LSR      r2,r8,#12             ;844
002622  7229              STRB     r1,[r5,#8]            ;844
002624  f8532022          LDR      r2,[r3,r2,LSL #2]     ;844
002628  4640              MOV      r0,r8                 ;844
00262a  4790              BLX      r2                    ;844
00262c  f001ba53          B.W      |L1.15062|
002630  79e9              LDRB     r1,[r5,#7]            ;847  ; bIgnoreIllegalOps
002632  2900              CMP      r1,#0                 ;847
002634  f041824f          BNE.W    |L1.15062|
002638  0b01              LSRS     r1,r0,#12             ;847
00263a  f8581021          LDR      r1,[r8,r1,LSL #2]     ;847
00263e  4788              BLX      r1                    ;847
002640  1c61              ADDS     r1,r4,#1              ;847
002642  b28c              UXTH     r4,r1                 ;847
002644  4448              ADD      r0,r0,r9              ;847
002646  4923              LDR      r1,|L1.9940|
002648  b2c0              UXTB     r0,r0                 ;847
00264a  5c0a              LDRB     r2,[r1,r0]            ;847
00264c  1c40              ADDS     r0,r0,#1              ;847
00264e  fa51f080          UXTAB    r0,r1,r0              ;847
002652  7800              LDRB     r0,[r0,#0]            ;847
002654  ea422000          ORR      r0,r2,r0,LSL #8       ;847
002658  0b01              LSRS     r1,r0,#12             ;847
00265a  9002              STR      r0,[sp,#8]            ;847
00265c  f8581021          LDR      r1,[r8,r1,LSL #2]     ;847
002660  4788              BLX      r1                    ;847
002662  4601              MOV      r1,r0                 ;847
002664  4638              MOV      r0,r7                 ;847
002666  f361005f          BFI      r0,r1,#1,#31          ;847
00266a  b2c1              UXTB     r1,r0                 ;847
00266c  4a1c              LDR      r2,|L1.9952|
00266e  400e              ANDS     r6,r6,r1              ;847
002670  f3c02007          UBFX     r0,r0,#8,#8           ;847
002674  5d92              LDRB     r2,[r2,r6]            ;847
002676  7229              STRB     r1,[r5,#8]            ;847
002678  4310              ORRS     r0,r0,r2              ;847
00267a  f0270283          BIC      r2,r7,#0x83           ;847
00267e  ea400702          ORR      r7,r0,r2              ;847
002682  9802              LDR      r0,[sp,#8]            ;847
002684  4b15              LDR      r3,|L1.9948|
002686  0b02              LSRS     r2,r0,#12             ;847
002688  f8532022          LDR      r2,[r3,r2,LSL #2]     ;847
00268c  4790              BLX      r2                    ;847
00268e  f001ba22          B.W      |L1.15062|
002692  79e9              LDRB     r1,[r5,#7]            ;848  ; bIgnoreIllegalOps
002694  2900              CMP      r1,#0                 ;848
002696  f041821e          BNE.W    |L1.15062|
00269a  0b01              LSRS     r1,r0,#12             ;848
00269c  f8581021          LDR      r1,[r8,r1,LSL #2]     ;848
0026a0  4788              BLX      r1                    ;848
0026a2  4601              MOV      r1,r0                 ;848
0026a4  4b0b              LDR      r3,|L1.9940|
0026a6  1c60              ADDS     r0,r4,#1              ;848
0026a8  b284              UXTH     r4,r0                 ;848
0026aa  5c5a              LDRB     r2,[r3,r1]            ;848
0026ac  4638              MOV      r0,r7                 ;848
0026ae  f362005f          BFI      r0,r2,#1,#31          ;848
0026b2  b2c2              UXTB     r2,r0                 ;848
0026b4  f8dfc028          LDR      r12,|L1.9952|
0026b8  4016              ANDS     r6,r6,r2              ;848
0026ba  f81cc006          LDRB     r12,[r12,r6]          ;848
0026be  722a              STRB     r2,[r5,#8]            ;848
0026c0  ea4c2010          ORR      r0,r12,r0,LSR #8      ;848
0026c4  f0270c83          BIC      r12,r7,#0x83          ;848
0026c8  ea40070c          ORR      r7,r0,r12             ;848
0026cc  545a              STRB     r2,[r3,r1]            ;848
0026ce  f001ba02          B.W      |L1.15062|
0026d2  0000              DCW      0x0000
                  |L1.9940|
                          DCD      ||.bss||
                  |L1.9944|
                          DCD      ||.bss||+0x800
                  |L1.9948|
                          DCD      ||.bss||+0x840
                  |L1.9952|
                          DCD      ||.constdata||+0x100
0026e4  79e9              LDRB     r1,[r5,#7]            ;849  ; bIgnoreIllegalOps
0026e6  2900              CMP      r1,#0                 ;849
0026e8  f04181f5          BNE.W    |L1.15062|
0026ec  49fc              LDR      r1,|L1.10976|
0026ee  0b02              LSRS     r2,r0,#12             ;849
0026f0  f8511022          LDR      r1,[r1,r2,LSL #2]     ;849
0026f4  4788              BLX      r1                    ;849
0026f6  1c61              ADDS     r1,r4,#1              ;849
0026f8  4680              MOV      r8,r0                 ;849
0026fa  b288              UXTH     r0,r1                 ;849
0026fc  f3c13203          UBFX     r2,r1,#12,#4          ;849
002700  49f7              LDR      r1,|L1.10976|
002702  f8511022          LDR      r1,[r1,r2,LSL #2]     ;849
002706  4788              BLX      r1                    ;849
002708  1ca1              ADDS     r1,r4,#2              ;849
00270a  b28c              UXTH     r4,r1                 ;849
00270c  ea482000          ORR      r0,r8,r0,LSL #8       ;849
002710  49f3              LDR      r1,|L1.10976|
002712  0b02              LSRS     r2,r0,#12             ;849
002714  4680              MOV      r8,r0                 ;849
002716  f8511022          LDR      r1,[r1,r2,LSL #2]     ;849
00271a  4788              BLX      r1                    ;849
00271c  4601              MOV      r1,r0                 ;849
00271e  4638              MOV      r0,r7                 ;849
002720  f361005f          BFI      r0,r1,#1,#31          ;849
002724  b2c1              UXTB     r1,r0                 ;849
002726  4aef              LDR      r2,|L1.10980|
002728  400e              ANDS     r6,r6,r1              ;849
00272a  f3c02007          UBFX     r0,r0,#8,#8           ;849
00272e  5d92              LDRB     r2,[r2,r6]            ;849
002730  4bed              LDR      r3,|L1.10984|
002732  4310              ORRS     r0,r0,r2              ;849
002734  f0270283          BIC      r2,r7,#0x83           ;849
002738  ea400702          ORR      r7,r0,r2              ;849
00273c  fa1ff088          UXTH     r0,r8                 ;849
002740  0b02              LSRS     r2,r0,#12             ;849
002742  7229              STRB     r1,[r5,#8]            ;849
002744  f8532022          LDR      r2,[r3,r2,LSL #2]     ;849
002748  4790              BLX      r2                    ;849
00274a  f001b9c4          B.W      |L1.15062|
00274e  79e9              LDRB     r1,[r5,#7]            ;850  ; bIgnoreIllegalOps
002750  2900              CMP      r1,#0                 ;850
002752  f04181c0          BNE.W    |L1.15062|
002756  0b01              LSRS     r1,r0,#12             ;850
002758  f8581021          LDR      r1,[r8,r1,LSL #2]     ;850
00275c  4788              BLX      r1                    ;850
00275e  49e3              LDR      r1,|L1.10988|
002760  b282              UXTH     r2,r0                 ;850
002762  1c40              ADDS     r0,r0,#1              ;850
002764  5c8a              LDRB     r2,[r1,r2]            ;850
002766  fa51f080          UXTAB    r0,r1,r0              ;850
00276a  7800              LDRB     r0,[r0,#0]            ;850
00276c  1c61              ADDS     r1,r4,#1              ;850
00276e  ea422000          ORR      r0,r2,r0,LSL #8       ;850
002772  4450              ADD      r0,r0,r10             ;850
002774  b280              UXTH     r0,r0                 ;850
002776  b28c              UXTH     r4,r1                 ;850
002778  0b01              LSRS     r1,r0,#12             ;850
00277a  9002              STR      r0,[sp,#8]            ;850
00277c  f8581021          LDR      r1,[r8,r1,LSL #2]     ;850
002780  4788              BLX      r1                    ;850
002782  4601              MOV      r1,r0                 ;850
002784  4638              MOV      r0,r7                 ;850
002786  f361005f          BFI      r0,r1,#1,#31          ;850
00278a  b2c1              UXTB     r1,r0                 ;850
00278c  4ad5              LDR      r2,|L1.10980|
00278e  400e              ANDS     r6,r6,r1              ;850
002790  f3c02007          UBFX     r0,r0,#8,#8           ;850
002794  5d92              LDRB     r2,[r2,r6]            ;850
002796  7229              STRB     r1,[r5,#8]            ;850
002798  4310              ORRS     r0,r0,r2              ;850
00279a  f0270283          BIC      r2,r7,#0x83           ;850
00279e  ea400702          ORR      r7,r0,r2              ;850
0027a2  9802              LDR      r0,[sp,#8]            ;850
0027a4  4bd0              LDR      r3,|L1.10984|
0027a6  0b02              LSRS     r2,r0,#12             ;850
0027a8  f8532022          LDR      r2,[r3,r2,LSL #2]     ;850
0027ac  4790              BLX      r2                    ;850
0027ae  f001b992          B.W      |L1.15062|
0027b2  79e9              LDRB     r1,[r5,#7]            ;851  ; bIgnoreIllegalOps
0027b4  2900              CMP      r1,#0                 ;851
0027b6  f041818e          BNE.W    |L1.15062|
0027ba  0b01              LSRS     r1,r0,#12             ;851
0027bc  f8581021          LDR      r1,[r8,r1,LSL #2]     ;851
0027c0  4788              BLX      r1                    ;851
0027c2  eb000109          ADD      r1,r0,r9              ;851
0027c6  f3610007          BFI      r0,r1,#0,#8           ;851
0027ca  4bc8              LDR      r3,|L1.10988|
0027cc  1c61              ADDS     r1,r4,#1              ;851
0027ce  b282              UXTH     r2,r0                 ;851
0027d0  b28c              UXTH     r4,r1                 ;851
0027d2  5c99              LDRB     r1,[r3,r2]            ;851
0027d4  4638              MOV      r0,r7                 ;851
0027d6  f361005f          BFI      r0,r1,#1,#31          ;851
0027da  b2c1              UXTB     r1,r0                 ;851
0027dc  f8dfc304          LDR      r12,|L1.10980|
0027e0  400e              ANDS     r6,r6,r1              ;851
0027e2  f81cc006          LDRB     r12,[r12,r6]          ;851
0027e6  7229              STRB     r1,[r5,#8]            ;851
0027e8  ea4c2010          ORR      r0,r12,r0,LSR #8      ;851
0027ec  f0270c83          BIC      r12,r7,#0x83          ;851
0027f0  ea40070c          ORR      r7,r0,r12             ;851
0027f4  5499              STRB     r1,[r3,r2]            ;851
0027f6  f001b96e          B.W      |L1.15062|
0027fa  79e9              LDRB     r1,[r5,#7]            ;852  ; bIgnoreIllegalOps
0027fc  2900              CMP      r1,#0                 ;852
0027fe  f041816a          BNE.W    |L1.15062|
002802  49b7              LDR      r1,|L1.10976|
002804  0b02              LSRS     r2,r0,#12             ;852
002806  f8511022          LDR      r1,[r1,r2,LSL #2]     ;852
00280a  4788              BLX      r1                    ;852
00280c  1c61              ADDS     r1,r4,#1              ;852
00280e  4680              MOV      r8,r0                 ;852
002810  b288              UXTH     r0,r1                 ;852
002812  f3c13203          UBFX     r2,r1,#12,#4          ;852
002816  49b2              LDR      r1,|L1.10976|
002818  f8511022          LDR      r1,[r1,r2,LSL #2]     ;852
00281c  4788              BLX      r1                    ;852
00281e  ea482000          ORR      r0,r8,r0,LSL #8       ;852
002822  1ca1              ADDS     r1,r4,#2              ;852
002824  b28c              UXTH     r4,r1                 ;852
002826  4450              ADD      r0,r0,r10             ;852
002828  b280              UXTH     r0,r0                 ;852
00282a  49ad              LDR      r1,|L1.10976|
00282c  0b02              LSRS     r2,r0,#12             ;852
00282e  4680              MOV      r8,r0                 ;852
002830  f8511022          LDR      r1,[r1,r2,LSL #2]     ;852
002834  4788              BLX      r1                    ;852
002836  4601              MOV      r1,r0                 ;852
002838  4638              MOV      r0,r7                 ;852
00283a  f361005f          BFI      r0,r1,#1,#31          ;852
00283e  b2c1              UXTB     r1,r0                 ;852
002840  4aa8              LDR      r2,|L1.10980|
002842  400e              ANDS     r6,r6,r1              ;852
002844  f3c02007          UBFX     r0,r0,#8,#8           ;852
002848  5d92              LDRB     r2,[r2,r6]            ;852
00284a  4ba7              LDR      r3,|L1.10984|
00284c  4310              ORRS     r0,r0,r2              ;852
00284e  f0270283          BIC      r2,r7,#0x83           ;852
002852  ea400702          ORR      r7,r0,r2              ;852
002856  ea4f3218          LSR      r2,r8,#12             ;852
00285a  7229              STRB     r1,[r5,#8]            ;852
00285c  f8532022          LDR      r2,[r3,r2,LSL #2]     ;852
002860  4640              MOV      r0,r8                 ;852
002862  4790              BLX      r2                    ;852
002864  f001b937          B.W      |L1.15062|
002868  79e9              LDRB     r1,[r5,#7]            ;853  ; bIgnoreIllegalOps
00286a  2900              CMP      r1,#0                 ;853
00286c  f0418133          BNE.W    |L1.15062|
002870  499b              LDR      r1,|L1.10976|
002872  0b02              LSRS     r2,r0,#12             ;853
002874  f8511022          LDR      r1,[r1,r2,LSL #2]     ;853
002878  4788              BLX      r1                    ;853
00287a  1c61              ADDS     r1,r4,#1              ;853
00287c  4680              MOV      r8,r0                 ;853
00287e  b288              UXTH     r0,r1                 ;853
002880  f3c13203          UBFX     r2,r1,#12,#4          ;853
002884  4996              LDR      r1,|L1.10976|
002886  f8511022          LDR      r1,[r1,r2,LSL #2]     ;853
00288a  4788              BLX      r1                    ;853
00288c  ea482000          ORR      r0,r8,r0,LSL #8       ;853
002890  1ca1              ADDS     r1,r4,#2              ;853
002892  b28c              UXTH     r4,r1                 ;853
002894  4448              ADD      r0,r0,r9              ;853
002896  b280              UXTH     r0,r0                 ;853
002898  4991              LDR      r1,|L1.10976|
00289a  0b02              LSRS     r2,r0,#12             ;853
00289c  4680              MOV      r8,r0                 ;853
00289e  f8511022          LDR      r1,[r1,r2,LSL #2]     ;853
0028a2  4788              BLX      r1                    ;853
0028a4  4601              MOV      r1,r0                 ;853
0028a6  4638              MOV      r0,r7                 ;853
0028a8  f361005f          BFI      r0,r1,#1,#31          ;853
0028ac  b2c1              UXTB     r1,r0                 ;853
0028ae  4a8d              LDR      r2,|L1.10980|
0028b0  400e              ANDS     r6,r6,r1              ;853
0028b2  f3c02007          UBFX     r0,r0,#8,#8           ;853
0028b6  5d92              LDRB     r2,[r2,r6]            ;853
0028b8  4b8b              LDR      r3,|L1.10984|
0028ba  4310              ORRS     r0,r0,r2              ;853
0028bc  f0270283          BIC      r2,r7,#0x83           ;853
0028c0  ea400702          ORR      r7,r0,r2              ;853
0028c4  ea4f3218          LSR      r2,r8,#12             ;853
0028c8  7229              STRB     r1,[r5,#8]            ;853
0028ca  f8532022          LDR      r2,[r3,r2,LSL #2]     ;853
0028ce  4640              MOV      r0,r8                 ;853
0028d0  4790              BLX      r2                    ;853
0028d2  f001b900          B.W      |L1.15062|
0028d6  79e9              LDRB     r1,[r5,#7]            ;856  ; bIgnoreIllegalOps
0028d8  2900              CMP      r1,#0                 ;856
0028da  f04180fc          BNE.W    |L1.15062|
0028de  0b01              LSRS     r1,r0,#12             ;856
0028e0  f8581021          LDR      r1,[r8,r1,LSL #2]     ;856
0028e4  4788              BLX      r1                    ;856
0028e6  1c61              ADDS     r1,r4,#1              ;856
0028e8  b28c              UXTH     r4,r1                 ;856
0028ea  4448              ADD      r0,r0,r9              ;856
0028ec  497f              LDR      r1,|L1.10988|
0028ee  b2c0              UXTB     r0,r0                 ;856
0028f0  5c0a              LDRB     r2,[r1,r0]            ;856
0028f2  1c40              ADDS     r0,r0,#1              ;856
0028f4  fa51f080          UXTAB    r0,r1,r0              ;856
0028f8  7800              LDRB     r0,[r0,#0]            ;856
0028fa  ea422000          ORR      r0,r2,r0,LSL #8       ;856
0028fe  0b01              LSRS     r1,r0,#12             ;856
002900  9002              STR      r0,[sp,#8]            ;856
002902  f8581021          LDR      r1,[r8,r1,LSL #2]     ;856
002906  4788              BLX      r1                    ;856
002908  f3c00147          UBFX     r1,r0,#1,#8           ;856
00290c  f0270283          BIC      r2,r7,#0x83           ;856
002910  f0000001          AND      r0,r0,#1              ;856
002914  4310              ORRS     r0,r0,r2              ;856
002916  4a73              LDR      r2,|L1.10980|
002918  404e              EORS     r6,r6,r1              ;856
00291a  4b73              LDR      r3,|L1.10984|
00291c  5d92              LDRB     r2,[r2,r6]            ;856
00291e  7229              STRB     r1,[r5,#8]            ;856
002920  ea400702          ORR      r7,r0,r2              ;856
002924  9802              LDR      r0,[sp,#8]            ;856
002926  0b02              LSRS     r2,r0,#12             ;856
002928  f8532022          LDR      r2,[r3,r2,LSL #2]     ;856
00292c  4790              BLX      r2                    ;856
00292e  f001b8d2          B.W      |L1.15062|
002932  79e9              LDRB     r1,[r5,#7]            ;857  ; bIgnoreIllegalOps
002934  2900              CMP      r1,#0                 ;857
002936  f04180ce          BNE.W    |L1.15062|
00293a  0b01              LSRS     r1,r0,#12             ;857
00293c  f8581021          LDR      r1,[r8,r1,LSL #2]     ;857
002940  4788              BLX      r1                    ;857
002942  4b6a              LDR      r3,|L1.10988|
002944  4601              MOV      r1,r0                 ;857
002946  1c60              ADDS     r0,r4,#1              ;857
002948  5c5a              LDRB     r2,[r3,r1]            ;857
00294a  b284              UXTH     r4,r0                 ;857
00294c  0850              LSRS     r0,r2,#1              ;857
00294e  f0270c83          BIC      r12,r7,#0x83          ;857
002952  f0020201          AND      r2,r2,#1              ;857
002956  ea4c0202          ORR      r2,r12,r2             ;857
00295a  f8dfc188          LDR      r12,|L1.10980|
00295e  4046              EORS     r6,r6,r0              ;857
002960  f81cc006          LDRB     r12,[r12,r6]          ;857
002964  7228              STRB     r0,[r5,#8]            ;857
002966  ea42070c          ORR      r7,r2,r12             ;857
00296a  5458              STRB     r0,[r3,r1]            ;857
00296c  f001b8b3          B.W      |L1.15062|
002970  79e9              LDRB     r1,[r5,#7]            ;858  ; bIgnoreIllegalOps
002972  2900              CMP      r1,#0                 ;858
002974  f04180af          BNE.W    |L1.15062|
002978  4959              LDR      r1,|L1.10976|
00297a  0b02              LSRS     r2,r0,#12             ;858
00297c  f8511022          LDR      r1,[r1,r2,LSL #2]     ;858
002980  4788              BLX      r1                    ;858
002982  1c61              ADDS     r1,r4,#1              ;858
002984  4680              MOV      r8,r0                 ;858
002986  b288              UXTH     r0,r1                 ;858
002988  f3c13203          UBFX     r2,r1,#12,#4          ;858
00298c  4954              LDR      r1,|L1.10976|
00298e  f8511022          LDR      r1,[r1,r2,LSL #2]     ;858
002992  4788              BLX      r1                    ;858
002994  1ca1              ADDS     r1,r4,#2              ;858
002996  b28c              UXTH     r4,r1                 ;858
002998  ea482000          ORR      r0,r8,r0,LSL #8       ;858
00299c  4950              LDR      r1,|L1.10976|
00299e  0b02              LSRS     r2,r0,#12             ;858
0029a0  4680              MOV      r8,r0                 ;858
0029a2  f8511022          LDR      r1,[r1,r2,LSL #2]     ;858
0029a6  4788              BLX      r1                    ;858
0029a8  f3c00147          UBFX     r1,r0,#1,#8           ;858
0029ac  f0270283          BIC      r2,r7,#0x83           ;858
0029b0  f0000001          AND      r0,r0,#1              ;858
0029b4  4310              ORRS     r0,r0,r2              ;858
0029b6  4a4b              LDR      r2,|L1.10980|
0029b8  404e              EORS     r6,r6,r1              ;858
0029ba  4b4b              LDR      r3,|L1.10984|
0029bc  5d92              LDRB     r2,[r2,r6]            ;858
0029be  7229              STRB     r1,[r5,#8]            ;858
0029c0  ea400702          ORR      r7,r0,r2              ;858
0029c4  fa1ff088          UXTH     r0,r8                 ;858
0029c8  0b02              LSRS     r2,r0,#12             ;858
0029ca  f8532022          LDR      r2,[r3,r2,LSL #2]     ;858
0029ce  4790              BLX      r2                    ;858
0029d0  f001b881          B.W      |L1.15062|
0029d4  79e9              LDRB     r1,[r5,#7]            ;859  ; bIgnoreIllegalOps
0029d6  2900              CMP      r1,#0                 ;859
0029d8  f041807d          BNE.W    |L1.15062|
0029dc  0b01              LSRS     r1,r0,#12             ;859
0029de  f8581021          LDR      r1,[r8,r1,LSL #2]     ;859
0029e2  4788              BLX      r1                    ;859
0029e4  4941              LDR      r1,|L1.10988|
0029e6  b282              UXTH     r2,r0                 ;859
0029e8  1c40              ADDS     r0,r0,#1              ;859
0029ea  5c8a              LDRB     r2,[r1,r2]            ;859
0029ec  fa51f080          UXTAB    r0,r1,r0              ;859
0029f0  7800              LDRB     r0,[r0,#0]            ;859
0029f2  1c61              ADDS     r1,r4,#1              ;859
0029f4  ea422000          ORR      r0,r2,r0,LSL #8       ;859
0029f8  4450              ADD      r0,r0,r10             ;859
0029fa  b280              UXTH     r0,r0                 ;859
0029fc  b28c              UXTH     r4,r1                 ;859
0029fe  0b01              LSRS     r1,r0,#12             ;859
002a00  9002              STR      r0,[sp,#8]            ;859
002a02  f8581021          LDR      r1,[r8,r1,LSL #2]     ;859
002a06  4788              BLX      r1                    ;859
002a08  f3c00147          UBFX     r1,r0,#1,#8           ;859
002a0c  f0270283          BIC      r2,r7,#0x83           ;859
002a10  f0000001          AND      r0,r0,#1              ;859
002a14  4310              ORRS     r0,r0,r2              ;859
002a16  4a33              LDR      r2,|L1.10980|
002a18  404e              EORS     r6,r6,r1              ;859
002a1a  4b33              LDR      r3,|L1.10984|
002a1c  5d92              LDRB     r2,[r2,r6]            ;859
002a1e  7229              STRB     r1,[r5,#8]            ;859
002a20  ea400702          ORR      r7,r0,r2              ;859
002a24  9802              LDR      r0,[sp,#8]            ;859
002a26  0b02              LSRS     r2,r0,#12             ;859
002a28  f8532022          LDR      r2,[r3,r2,LSL #2]     ;859
002a2c  4790              BLX      r2                    ;859
002a2e  f001b852          B.W      |L1.15062|
002a32  79e9              LDRB     r1,[r5,#7]            ;860  ; bIgnoreIllegalOps
002a34  2900              CMP      r1,#0                 ;860
002a36  f041804e          BNE.W    |L1.15062|
002a3a  0b01              LSRS     r1,r0,#12             ;860
002a3c  f8581021          LDR      r1,[r8,r1,LSL #2]     ;860
002a40  4788              BLX      r1                    ;860
002a42  eb000109          ADD      r1,r0,r9              ;860
002a46  f3610007          BFI      r0,r1,#0,#8           ;860
002a4a  4b28              LDR      r3,|L1.10988|
002a4c  1c61              ADDS     r1,r4,#1              ;860
002a4e  b282              UXTH     r2,r0                 ;860
002a50  b28c              UXTH     r4,r1                 ;860
002a52  5c99              LDRB     r1,[r3,r2]            ;860
002a54  f0270c83          BIC      r12,r7,#0x83          ;860
002a58  0848              LSRS     r0,r1,#1              ;860
002a5a  f0010101          AND      r1,r1,#1              ;860
002a5e  ea4c0101          ORR      r1,r12,r1             ;860
002a62  f8dfc080          LDR      r12,|L1.10980|
002a66  4046              EORS     r6,r6,r0              ;860
002a68  f81cc006          LDRB     r12,[r12,r6]          ;860
002a6c  7228              STRB     r0,[r5,#8]            ;860
002a6e  ea41070c          ORR      r7,r1,r12             ;860
002a72  5498              STRB     r0,[r3,r2]            ;860
002a74  f001b82f          B.W      |L1.15062|
002a78  79e9              LDRB     r1,[r5,#7]            ;861  ; bIgnoreIllegalOps
002a7a  2900              CMP      r1,#0                 ;861
002a7c  f041802b          BNE.W    |L1.15062|
002a80  4917              LDR      r1,|L1.10976|
002a82  0b02              LSRS     r2,r0,#12             ;861
002a84  f8511022          LDR      r1,[r1,r2,LSL #2]     ;861
002a88  4788              BLX      r1                    ;861
002a8a  1c61              ADDS     r1,r4,#1              ;861
002a8c  4680              MOV      r8,r0                 ;861
002a8e  b288              UXTH     r0,r1                 ;861
002a90  f3c13203          UBFX     r2,r1,#12,#4          ;861
002a94  4912              LDR      r1,|L1.10976|
002a96  f8511022          LDR      r1,[r1,r2,LSL #2]     ;861
002a9a  4788              BLX      r1                    ;861
002a9c  ea482000          ORR      r0,r8,r0,LSL #8       ;861
002aa0  1ca1              ADDS     r1,r4,#2              ;861
002aa2  b28c              UXTH     r4,r1                 ;861
002aa4  4450              ADD      r0,r0,r10             ;861
002aa6  b280              UXTH     r0,r0                 ;861
002aa8  490d              LDR      r1,|L1.10976|
002aaa  0b02              LSRS     r2,r0,#12             ;861
002aac  4680              MOV      r8,r0                 ;861
002aae  f8511022          LDR      r1,[r1,r2,LSL #2]     ;861
002ab2  4788              BLX      r1                    ;861
002ab4  f3c00147          UBFX     r1,r0,#1,#8           ;861
002ab8  404e              EORS     r6,r6,r1              ;861
002aba  f0270283          BIC      r2,r7,#0x83           ;861
002abe  f0000001          AND      r0,r0,#1              ;861
002ac2  4310              ORRS     r0,r0,r2              ;861
002ac4  4a07              LDR      r2,|L1.10980|
002ac6  4b08              LDR      r3,|L1.10984|
002ac8  5d92              LDRB     r2,[r2,r6]            ;861
002aca  7229              STRB     r1,[r5,#8]            ;861
002acc  ea400702          ORR      r7,r0,r2              ;861
002ad0  ea4f3218          LSR      r2,r8,#12             ;861
002ad4  4640              MOV      r0,r8                 ;861
002ad6  f8532022          LDR      r2,[r3,r2,LSL #2]     ;861
002ada  4790              BLX      r2                    ;861
002adc  f000bffb          B.W      |L1.15062|
                  |L1.10976|
                          DCD      ||.bss||+0x800
                  |L1.10980|
                          DCD      ||.constdata||+0x100
                  |L1.10984|
                          DCD      ||.bss||+0x840
                  |L1.10988|
                          DCD      ||.bss||
002af0  79e9              LDRB     r1,[r5,#7]            ;862  ; bIgnoreIllegalOps
002af2  2900              CMP      r1,#0                 ;862
002af4  f04087ef          BNE.W    |L1.15062|
002af8  49fe              LDR      r1,|L1.12020|
002afa  0b02              LSRS     r2,r0,#12             ;862
002afc  f8511022          LDR      r1,[r1,r2,LSL #2]     ;862
002b00  4788              BLX      r1                    ;862
002b02  1c61              ADDS     r1,r4,#1              ;862
002b04  4680              MOV      r8,r0                 ;862
002b06  b288              UXTH     r0,r1                 ;862
002b08  f3c13203          UBFX     r2,r1,#12,#4          ;862
002b0c  49f9              LDR      r1,|L1.12020|
002b0e  f8511022          LDR      r1,[r1,r2,LSL #2]     ;862
002b12  4788              BLX      r1                    ;862
002b14  ea482000          ORR      r0,r8,r0,LSL #8       ;862
002b18  1ca1              ADDS     r1,r4,#2              ;862
002b1a  b28c              UXTH     r4,r1                 ;862
002b1c  4448              ADD      r0,r0,r9              ;862
002b1e  b280              UXTH     r0,r0                 ;862
002b20  49f4              LDR      r1,|L1.12020|
002b22  0b02              LSRS     r2,r0,#12             ;862
002b24  4680              MOV      r8,r0                 ;862
002b26  f8511022          LDR      r1,[r1,r2,LSL #2]     ;862
002b2a  4788              BLX      r1                    ;862
002b2c  f3c00147          UBFX     r1,r0,#1,#8           ;862
002b30  404e              EORS     r6,r6,r1              ;862
002b32  f0270283          BIC      r2,r7,#0x83           ;862
002b36  f0000001          AND      r0,r0,#1              ;862
002b3a  4310              ORRS     r0,r0,r2              ;862
002b3c  4aee              LDR      r2,|L1.12024|
002b3e  4bef              LDR      r3,|L1.12028|
002b40  5d92              LDRB     r2,[r2,r6]            ;862
002b42  7229              STRB     r1,[r5,#8]            ;862
002b44  ea400702          ORR      r7,r0,r2              ;862
002b48  ea4f3218          LSR      r2,r8,#12             ;862
002b4c  4640              MOV      r0,r8                 ;862
002b4e  f8532022          LDR      r2,[r3,r2,LSL #2]     ;862
002b52  4790              BLX      r2                    ;862
002b54  f000bfbf          B.W      |L1.15062|
002b58  79e9              LDRB     r1,[r5,#7]            ;865  ; bIgnoreIllegalOps
002b5a  2900              CMP      r1,#0                 ;865
002b5c  f04087bb          BNE.W    |L1.15062|
002b60  0b01              LSRS     r1,r0,#12             ;865
002b62  f8581021          LDR      r1,[r8,r1,LSL #2]     ;865
002b66  4788              BLX      r1                    ;865
002b68  1c61              ADDS     r1,r4,#1              ;865
002b6a  b28c              UXTH     r4,r1                 ;865
002b6c  4448              ADD      r0,r0,r9              ;865
002b6e  49e4              LDR      r1,|L1.12032|
002b70  b2c0              UXTB     r0,r0                 ;865
002b72  5c0a              LDRB     r2,[r1,r0]            ;865
002b74  1c40              ADDS     r0,r0,#1              ;865
002b76  fa51f080          UXTAB    r0,r1,r0              ;865
002b7a  7800              LDRB     r0,[r0,#0]            ;865
002b7c  ea422000          ORR      r0,r2,r0,LSL #8       ;865
002b80  0b01              LSRS     r1,r0,#12             ;865
002b82  9002              STR      r0,[sp,#8]            ;865
002b84  f8581021          LDR      r1,[r8,r1,LSL #2]     ;865
002b88  4788              BLX      r1                    ;865
002b8a  0841              LSRS     r1,r0,#1              ;865
002b8c  ea4111c7          ORR      r1,r1,r7,LSL #7       ;865
002b90  f3600700          BFI      r7,r0,#0,#1           ;865
002b94  b2c9              UXTB     r1,r1                 ;865
002b96  1870              ADDS     r0,r6,r1              ;865
002b98  f0070201          AND      r2,r7,#1              ;865
002b9c  4410              ADD      r0,r0,r2              ;865
002b9e  f3c02207          UBFX     r2,r0,#8,#8           ;865
002ba2  4bd5              LDR      r3,|L1.12024|
002ba4  b2c0              UXTB     r0,r0                 ;865
002ba6  7229              STRB     r1,[r5,#8]            ;865
002ba8  5c1b              LDRB     r3,[r3,r0]            ;865
002baa  ea860c01          EOR      r12,r6,r1             ;865
002bae  431a              ORRS     r2,r2,r3              ;865
002bb0  ea800306          EOR      r3,r0,r6              ;865
002bb4  ea23030c          BIC      r3,r3,r12             ;865
002bb8  f0130380          ANDS     r3,r3,#0x80           ;865
002bbc  d17d              BNE      |L1.11450|
002bbe  bf00              NOP                            ;865
                  |L1.11200|
002bc0  f0070c0c          AND      r12,r7,#0xc           ;865
002bc4  ea43030c          ORR      r3,r3,r12             ;865
002bc8  4606              MOV      r6,r0                 ;865
002bca  ea420703          ORR      r7,r2,r3              ;865
002bce  9802              LDR      r0,[sp,#8]            ;865
002bd0  4bca              LDR      r3,|L1.12028|
002bd2  0b02              LSRS     r2,r0,#12             ;865
002bd4  f8532022          LDR      r2,[r3,r2,LSL #2]     ;865
002bd8  4790              BLX      r2                    ;865
002bda  f000bf7c          B.W      |L1.15062|
002bde  79e9              LDRB     r1,[r5,#7]            ;866  ; bIgnoreIllegalOps
002be0  2900              CMP      r1,#0                 ;866
002be2  f0408778          BNE.W    |L1.15062|
002be6  0b01              LSRS     r1,r0,#12             ;866
002be8  f8581021          LDR      r1,[r8,r1,LSL #2]     ;866
002bec  4788              BLX      r1                    ;866
002bee  f8dfc310          LDR      r12,|L1.12032|
002bf2  4680              MOV      r8,r0                 ;866
002bf4  1c61              ADDS     r1,r4,#1              ;866
002bf6  b28c              UXTH     r4,r1                 ;866
002bf8  f81c1008          LDRB     r1,[r12,r8]           ;866
002bfc  4bbe              LDR      r3,|L1.12024|
002bfe  0848              LSRS     r0,r1,#1              ;866
002c00  ea4010c7          ORR      r0,r0,r7,LSL #7       ;866
002c04  f3610700          BFI      r7,r1,#0,#1           ;866
002c08  b2c1              UXTB     r1,r0                 ;866
002c0a  1870              ADDS     r0,r6,r1              ;866
002c0c  f0070201          AND      r2,r7,#1              ;866
002c10  4410              ADD      r0,r0,r2              ;866
002c12  f3c02207          UBFX     r2,r0,#8,#8           ;866
002c16  b2c0              UXTB     r0,r0                 ;866
002c18  7229              STRB     r1,[r5,#8]            ;866
002c1a  5c1b              LDRB     r3,[r3,r0]            ;866
002c1c  431a              ORRS     r2,r2,r3              ;866
002c1e  ea800306          EOR      r3,r0,r6              ;866
002c22  404e              EORS     r6,r6,r1              ;866
002c24  43b3              BICS     r3,r3,r6              ;866
002c26  f0130380          ANDS     r3,r3,#0x80           ;866
002c2a  bf18              IT       NE                    ;866
002c2c  2340              MOVNE    r3,#0x40              ;866
002c2e  f007060c          AND      r6,r7,#0xc            ;866
002c32  4333              ORRS     r3,r3,r6              ;866
002c34  ea420703          ORR      r7,r2,r3              ;866
002c38  4606              MOV      r6,r0                 ;866
002c3a  f80c1008          STRB     r1,[r12,r8]           ;866
002c3e  f000bf4a          B.W      |L1.15062|
002c42  79e9              LDRB     r1,[r5,#7]            ;867  ; bIgnoreIllegalOps
002c44  2900              CMP      r1,#0                 ;867
002c46  f0408746          BNE.W    |L1.15062|
002c4a  49aa              LDR      r1,|L1.12020|
002c4c  0b02              LSRS     r2,r0,#12             ;867
002c4e  f8511022          LDR      r1,[r1,r2,LSL #2]     ;867
002c52  4788              BLX      r1                    ;867
002c54  1c61              ADDS     r1,r4,#1              ;867
002c56  4680              MOV      r8,r0                 ;867
002c58  b288              UXTH     r0,r1                 ;867
002c5a  f3c13203          UBFX     r2,r1,#12,#4          ;867
002c5e  49a5              LDR      r1,|L1.12020|
002c60  f8511022          LDR      r1,[r1,r2,LSL #2]     ;867
002c64  4788              BLX      r1                    ;867
002c66  1ca1              ADDS     r1,r4,#2              ;867
002c68  b28c              UXTH     r4,r1                 ;867
002c6a  ea482000          ORR      r0,r8,r0,LSL #8       ;867
002c6e  49a1              LDR      r1,|L1.12020|
002c70  0b02              LSRS     r2,r0,#12             ;867
002c72  4680              MOV      r8,r0                 ;867
002c74  f8511022          LDR      r1,[r1,r2,LSL #2]     ;867
002c78  4788              BLX      r1                    ;867
002c7a  0841              LSRS     r1,r0,#1              ;867
002c7c  ea4111c7          ORR      r1,r1,r7,LSL #7       ;867
002c80  f3600700          BFI      r7,r0,#0,#1           ;867
002c84  b2c9              UXTB     r1,r1                 ;867
002c86  1870              ADDS     r0,r6,r1              ;867
002c88  f0070201          AND      r2,r7,#1              ;867
002c8c  4410              ADD      r0,r0,r2              ;867
002c8e  f3c02207          UBFX     r2,r0,#8,#8           ;867
002c92  4b99              LDR      r3,|L1.12024|
002c94  b2c0              UXTB     r0,r0                 ;867
002c96  7229              STRB     r1,[r5,#8]            ;867
002c98  5c1b              LDRB     r3,[r3,r0]            ;867
002c9a  ea860c01          EOR      r12,r6,r1             ;867
002c9e  431a              ORRS     r2,r2,r3              ;867
002ca0  ea800306          EOR      r3,r0,r6              ;867
002ca4  ea23030c          BIC      r3,r3,r12             ;867
002ca8  f0130380          ANDS     r3,r3,#0x80           ;867
002cac  bf18              IT       NE                    ;867
002cae  2340              MOVNE    r3,#0x40              ;867
002cb0  f0070c0c          AND      r12,r7,#0xc           ;867
002cb4  ea43030c          ORR      r3,r3,r12             ;867
002cb8  e000              B        |L1.11452|
                  |L1.11450|
002cba  e040              B        |L1.11582|
                  |L1.11452|
002cbc  ea420703          ORR      r7,r2,r3              ;867
002cc0  4606              MOV      r6,r0                 ;867
002cc2  fa1ff088          UXTH     r0,r8                 ;867
002cc6  4b8d              LDR      r3,|L1.12028|
002cc8  0b02              LSRS     r2,r0,#12             ;867
002cca  f8532022          LDR      r2,[r3,r2,LSL #2]     ;867
002cce  4790              BLX      r2                    ;867
002cd0  f000bf01          B.W      |L1.15062|
002cd4  79e9              LDRB     r1,[r5,#7]            ;868  ; bIgnoreIllegalOps
002cd6  2900              CMP      r1,#0                 ;868
002cd8  f04086fd          BNE.W    |L1.15062|
002cdc  0b01              LSRS     r1,r0,#12             ;868
002cde  f8581021          LDR      r1,[r8,r1,LSL #2]     ;868
002ce2  4788              BLX      r1                    ;868
002ce4  4986              LDR      r1,|L1.12032|
002ce6  b282              UXTH     r2,r0                 ;868
002ce8  1c40              ADDS     r0,r0,#1              ;868
002cea  5c8a              LDRB     r2,[r1,r2]            ;868
002cec  fa51f080          UXTAB    r0,r1,r0              ;868
002cf0  7800              LDRB     r0,[r0,#0]            ;868
002cf2  1c61              ADDS     r1,r4,#1              ;868
002cf4  ea422000          ORR      r0,r2,r0,LSL #8       ;868
002cf8  4450              ADD      r0,r0,r10             ;868
002cfa  b280              UXTH     r0,r0                 ;868
002cfc  b28c              UXTH     r4,r1                 ;868
002cfe  0b01              LSRS     r1,r0,#12             ;868
002d00  9002              STR      r0,[sp,#8]            ;868
002d02  f8581021          LDR      r1,[r8,r1,LSL #2]     ;868
002d06  4788              BLX      r1                    ;868
002d08  0841              LSRS     r1,r0,#1              ;868
002d0a  ea4111c7          ORR      r1,r1,r7,LSL #7       ;868
002d0e  f3600700          BFI      r7,r0,#0,#1           ;868
002d12  b2c9              UXTB     r1,r1                 ;868
002d14  1870              ADDS     r0,r6,r1              ;868
002d16  f0070201          AND      r2,r7,#1              ;868
002d1a  4410              ADD      r0,r0,r2              ;868
002d1c  f3c02207          UBFX     r2,r0,#8,#8           ;868
002d20  4b75              LDR      r3,|L1.12024|
002d22  b2c0              UXTB     r0,r0                 ;868
002d24  7229              STRB     r1,[r5,#8]            ;868
002d26  5c1b              LDRB     r3,[r3,r0]            ;868
002d28  ea860c01          EOR      r12,r6,r1             ;868
002d2c  431a              ORRS     r2,r2,r3              ;868
002d2e  ea800306          EOR      r3,r0,r6              ;868
002d32  ea23030c          BIC      r3,r3,r12             ;868
002d36  f0130380          ANDS     r3,r3,#0x80           ;868
002d3a  f43faf41          BEQ      |L1.11200|
                  |L1.11582|
002d3e  2340              MOVS     r3,#0x40              ;868
002d40  e73e              B        |L1.11200|
002d42  79e9              LDRB     r1,[r5,#7]            ;869  ; bIgnoreIllegalOps
002d44  2900              CMP      r1,#0                 ;869
002d46  f04086c6          BNE.W    |L1.15062|
002d4a  0b01              LSRS     r1,r0,#12             ;869
002d4c  f8581021          LDR      r1,[r8,r1,LSL #2]     ;869
002d50  4788              BLX      r1                    ;869
002d52  eb000109          ADD      r1,r0,r9              ;869
002d56  f3610007          BFI      r0,r1,#0,#8           ;869
002d5a  f8df81a4          LDR      r8,|L1.12032|
002d5e  1c61              ADDS     r1,r4,#1              ;869
002d60  fa1ffc80          UXTH     r12,r0                ;869
002d64  b28c              UXTH     r4,r1                 ;869
002d66  f818100c          LDRB     r1,[r8,r12]           ;869
002d6a  4b63              LDR      r3,|L1.12024|
002d6c  0848              LSRS     r0,r1,#1              ;869
002d6e  ea4010c7          ORR      r0,r0,r7,LSL #7       ;869
002d72  f3610700          BFI      r7,r1,#0,#1           ;869
002d76  b2c1              UXTB     r1,r0                 ;869
002d78  1870              ADDS     r0,r6,r1              ;869
002d7a  f0070201          AND      r2,r7,#1              ;869
002d7e  4410              ADD      r0,r0,r2              ;869
002d80  f3c02207          UBFX     r2,r0,#8,#8           ;869
002d84  b2c0              UXTB     r0,r0                 ;869
002d86  7229              STRB     r1,[r5,#8]            ;869
002d88  5c1b              LDRB     r3,[r3,r0]            ;869
002d8a  431a              ORRS     r2,r2,r3              ;869
002d8c  ea800306          EOR      r3,r0,r6              ;869
002d90  404e              EORS     r6,r6,r1              ;869
002d92  43b3              BICS     r3,r3,r6              ;869
002d94  f0130380          ANDS     r3,r3,#0x80           ;869
002d98  bf18              IT       NE                    ;869
002d9a  2340              MOVNE    r3,#0x40              ;869
002d9c  f007060c          AND      r6,r7,#0xc            ;869
002da0  4333              ORRS     r3,r3,r6              ;869
002da2  ea420703          ORR      r7,r2,r3              ;869
002da6  4606              MOV      r6,r0                 ;869
002da8  f808100c          STRB     r1,[r8,r12]           ;869
002dac  f000be93          B.W      |L1.15062|
002db0  79e9              LDRB     r1,[r5,#7]            ;870  ; bIgnoreIllegalOps
002db2  2900              CMP      r1,#0                 ;870
002db4  f040868f          BNE.W    |L1.15062|
002db8  494e              LDR      r1,|L1.12020|
002dba  0b02              LSRS     r2,r0,#12             ;870
002dbc  f8511022          LDR      r1,[r1,r2,LSL #2]     ;870
002dc0  4788              BLX      r1                    ;870
002dc2  1c61              ADDS     r1,r4,#1              ;870
002dc4  4680              MOV      r8,r0                 ;870
002dc6  b288              UXTH     r0,r1                 ;870
002dc8  f3c13203          UBFX     r2,r1,#12,#4          ;870
002dcc  4949              LDR      r1,|L1.12020|
002dce  f8511022          LDR      r1,[r1,r2,LSL #2]     ;870
002dd2  4788              BLX      r1                    ;870
002dd4  ea482000          ORR      r0,r8,r0,LSL #8       ;870
002dd8  1ca1              ADDS     r1,r4,#2              ;870
002dda  b28c              UXTH     r4,r1                 ;870
002ddc  4450              ADD      r0,r0,r10             ;870
002dde  b280              UXTH     r0,r0                 ;870
002de0  4944              LDR      r1,|L1.12020|
002de2  0b02              LSRS     r2,r0,#12             ;870
002de4  4680              MOV      r8,r0                 ;870
002de6  f8511022          LDR      r1,[r1,r2,LSL #2]     ;870
002dea  4788              BLX      r1                    ;870
002dec  0841              LSRS     r1,r0,#1              ;870
002dee  ea4111c7          ORR      r1,r1,r7,LSL #7       ;870
002df2  f3600700          BFI      r7,r0,#0,#1           ;870
002df6  b2c9              UXTB     r1,r1                 ;870
002df8  1870              ADDS     r0,r6,r1              ;870
002dfa  f0070201          AND      r2,r7,#1              ;870
002dfe  4410              ADD      r0,r0,r2              ;870
002e00  f3c02207          UBFX     r2,r0,#8,#8           ;870
002e04  4b3c              LDR      r3,|L1.12024|
002e06  b2c0              UXTB     r0,r0                 ;870
002e08  7229              STRB     r1,[r5,#8]            ;870
002e0a  5c1b              LDRB     r3,[r3,r0]            ;870
002e0c  ea860c01          EOR      r12,r6,r1             ;870
002e10  431a              ORRS     r2,r2,r3              ;870
002e12  ea800306          EOR      r3,r0,r6              ;870
002e16  ea23030c          BIC      r3,r3,r12             ;870
002e1a  f0130380          ANDS     r3,r3,#0x80           ;870
002e1e  d147              BNE      |L1.11952|
                  |L1.11808|
002e20  f0070c0c          AND      r12,r7,#0xc           ;870
002e24  ea43030c          ORR      r3,r3,r12             ;870
002e28  ea420703          ORR      r7,r2,r3              ;870
002e2c  4b33              LDR      r3,|L1.12028|
002e2e  ea4f3218          LSR      r2,r8,#12             ;870
002e32  4606              MOV      r6,r0                 ;870
002e34  f8532022          LDR      r2,[r3,r2,LSL #2]     ;870
002e38  4640              MOV      r0,r8                 ;870
002e3a  4790              BLX      r2                    ;870
002e3c  f000be4b          B.W      |L1.15062|
002e40  79e9              LDRB     r1,[r5,#7]            ;871  ; bIgnoreIllegalOps
002e42  2900              CMP      r1,#0                 ;871
002e44  f0408647          BNE.W    |L1.15062|
002e48  492a              LDR      r1,|L1.12020|
002e4a  0b02              LSRS     r2,r0,#12             ;871
002e4c  f8511022          LDR      r1,[r1,r2,LSL #2]     ;871
002e50  4788              BLX      r1                    ;871
002e52  1c61              ADDS     r1,r4,#1              ;871
002e54  4680              MOV      r8,r0                 ;871
002e56  b288              UXTH     r0,r1                 ;871
002e58  f3c13203          UBFX     r2,r1,#12,#4          ;871
002e5c  4925              LDR      r1,|L1.12020|
002e5e  f8511022          LDR      r1,[r1,r2,LSL #2]     ;871
002e62  4788              BLX      r1                    ;871
002e64  ea482000          ORR      r0,r8,r0,LSL #8       ;871
002e68  1ca1              ADDS     r1,r4,#2              ;871
002e6a  b28c              UXTH     r4,r1                 ;871
002e6c  4448              ADD      r0,r0,r9              ;871
002e6e  b280              UXTH     r0,r0                 ;871
002e70  4920              LDR      r1,|L1.12020|
002e72  0b02              LSRS     r2,r0,#12             ;871
002e74  4680              MOV      r8,r0                 ;871
002e76  f8511022          LDR      r1,[r1,r2,LSL #2]     ;871
002e7a  4788              BLX      r1                    ;871
002e7c  0841              LSRS     r1,r0,#1              ;871
002e7e  ea4111c7          ORR      r1,r1,r7,LSL #7       ;871
002e82  f3600700          BFI      r7,r0,#0,#1           ;871
002e86  b2c9              UXTB     r1,r1                 ;871
002e88  1870              ADDS     r0,r6,r1              ;871
002e8a  f0070201          AND      r2,r7,#1              ;871
002e8e  4410              ADD      r0,r0,r2              ;871
002e90  f3c02207          UBFX     r2,r0,#8,#8           ;871
002e94  4b18              LDR      r3,|L1.12024|
002e96  b2c0              UXTB     r0,r0                 ;871
002e98  7229              STRB     r1,[r5,#8]            ;871
002e9a  5c1b              LDRB     r3,[r3,r0]            ;871
002e9c  ea860c01          EOR      r12,r6,r1             ;871
002ea0  431a              ORRS     r2,r2,r3              ;871
002ea2  ea800306          EOR      r3,r0,r6              ;871
002ea6  ea23030c          BIC      r3,r3,r12             ;871
002eaa  f0130380          ANDS     r3,r3,#0x80           ;871
002eae  d0b7              BEQ      |L1.11808|
                  |L1.11952|
002eb0  2340              MOVS     r3,#0x40              ;871
002eb2  e7b5              B        |L1.11808|
002eb4  79e9              LDRB     r1,[r5,#7]            ;874  ; bIgnoreIllegalOps
002eb6  2900              CMP      r1,#0                 ;874
002eb8  f040860d          BNE.W    |L1.15062|
002ebc  0b01              LSRS     r1,r0,#12             ;874
002ebe  f8581021          LDR      r1,[r8,r1,LSL #2]     ;874
002ec2  4788              BLX      r1                    ;874
002ec4  1c61              ADDS     r1,r4,#1              ;874
002ec6  b28c              UXTH     r4,r1                 ;874
002ec8  4448              ADD      r0,r0,r9              ;874
002eca  490d              LDR      r1,|L1.12032|
002ecc  b2c0              UXTB     r0,r0                 ;874
002ece  5c0a              LDRB     r2,[r1,r0]            ;874
002ed0  1c40              ADDS     r0,r0,#1              ;874
002ed2  fa51f080          UXTAB    r0,r1,r0              ;874
002ed6  7800              LDRB     r0,[r0,#0]            ;874
002ed8  ea422000          ORR      r0,r2,r0,LSL #8       ;874
002edc  0b01              LSRS     r1,r0,#12             ;874
002ede  9002              STR      r0,[sp,#8]            ;874
002ee0  f8581021          LDR      r1,[r8,r1,LSL #2]     ;874
002ee4  4788              BLX      r1                    ;874
002ee6  ea060109          AND      r1,r6,r9              ;874
002eea  7229              STRB     r1,[r5,#8]            ;874
002eec  9802              LDR      r0,[sp,#8]            ;874
002eee  4b03              LDR      r3,|L1.12028|
002ef0  0b02              LSRS     r2,r0,#12             ;874
002ef2  e007              B        |L1.12036|
                  |L1.12020|
                          DCD      ||.bss||+0x800
                  |L1.12024|
                          DCD      ||.constdata||+0x100
                  |L1.12028|
                          DCD      ||.bss||+0x840
                  |L1.12032|
                          DCD      ||.bss||
                  |L1.12036|
002f04  f8532022          LDR      r2,[r3,r2,LSL #2]     ;874
002f08  4790              BLX      r2                    ;874
002f0a  f000bde4          B.W      |L1.15062|
002f0e  79e9              LDRB     r1,[r5,#7]            ;875  ; bIgnoreIllegalOps
002f10  2900              CMP      r1,#0                 ;875
002f12  f04085e0          BNE.W    |L1.15062|
002f16  0b01              LSRS     r1,r0,#12             ;875
002f18  f8581021          LDR      r1,[r8,r1,LSL #2]     ;875
002f1c  4788              BLX      r1                    ;875
002f1e  1c61              ADDS     r1,r4,#1              ;875
002f20  b28c              UXTH     r4,r1                 ;875
002f22  4afe              LDR      r2,|L1.13084|
002f24  ea060109          AND      r1,r6,r9              ;875
                  |L1.12072|
002f28  7229              STRB     r1,[r5,#8]            ;875
002f2a  e148              B        |L1.12734|
002f2c  79e9              LDRB     r1,[r5,#7]            ;876  ; bIgnoreIllegalOps
002f2e  2900              CMP      r1,#0                 ;876
002f30  f04085d1          BNE.W    |L1.15062|
002f34  49fa              LDR      r1,|L1.13088|
002f36  0b02              LSRS     r2,r0,#12             ;876
002f38  f8511022          LDR      r1,[r1,r2,LSL #2]     ;876
002f3c  4788              BLX      r1                    ;876
002f3e  1c61              ADDS     r1,r4,#1              ;876
002f40  4680              MOV      r8,r0                 ;876
002f42  b288              UXTH     r0,r1                 ;876
002f44  f3c13203          UBFX     r2,r1,#12,#4          ;876
002f48  49f5              LDR      r1,|L1.13088|
002f4a  f8511022          LDR      r1,[r1,r2,LSL #2]     ;876
002f4e  4788              BLX      r1                    ;876
002f50  1ca1              ADDS     r1,r4,#2              ;876
002f52  b28c              UXTH     r4,r1                 ;876
002f54  ea482000          ORR      r0,r8,r0,LSL #8       ;876
002f58  49f1              LDR      r1,|L1.13088|
002f5a  0b02              LSRS     r2,r0,#12             ;876
002f5c  4680              MOV      r8,r0                 ;876
002f5e  f8511022          LDR      r1,[r1,r2,LSL #2]     ;876
002f62  4788              BLX      r1                    ;876
002f64  fa1ff088          UXTH     r0,r8                 ;876
002f68  4bee              LDR      r3,|L1.13092|
002f6a  ea060109          AND      r1,r6,r9              ;876
002f6e  0b02              LSRS     r2,r0,#12             ;876
002f70  7229              STRB     r1,[r5,#8]            ;876
002f72  f8532022          LDR      r2,[r3,r2,LSL #2]     ;876
002f76  4790              BLX      r2                    ;876
002f78  f000bdad          B.W      |L1.15062|
002f7c  79e9              LDRB     r1,[r5,#7]            ;877  ; bIgnoreIllegalOps
002f7e  2900              CMP      r1,#0                 ;877
002f80  f04085a9          BNE.W    |L1.15062|
002f84  0b01              LSRS     r1,r0,#12             ;877
002f86  f8581021          LDR      r1,[r8,r1,LSL #2]     ;877
002f8a  4788              BLX      r1                    ;877
002f8c  eb00010a          ADD      r1,r0,r10             ;877
002f90  f3610007          BFI      r0,r1,#0,#8           ;877
002f94  1c61              ADDS     r1,r4,#1              ;877
002f96  b28c              UXTH     r4,r1                 ;877
002f98  ea060109          AND      r1,r6,r9              ;877
002f9c  b280              UXTH     r0,r0                 ;877
002f9e  4adf              LDR      r2,|L1.13084|
002fa0  7229              STRB     r1,[r5,#8]            ;877
002fa2  e10c              B        |L1.12734|
002fa4  79e9              LDRB     r1,[r5,#7]            ;880  ; bIgnoreIllegalOps
002fa6  2900              CMP      r1,#0                 ;880
002fa8  f0408595          BNE.W    |L1.15062|
002fac  0b01              LSRS     r1,r0,#12             ;880
002fae  f8581021          LDR      r1,[r8,r1,LSL #2]     ;880
002fb2  4788              BLX      r1                    ;880
002fb4  1c61              ADDS     r1,r4,#1              ;880
002fb6  b28c              UXTH     r4,r1                 ;880
002fb8  4448              ADD      r0,r0,r9              ;880
002fba  49d8              LDR      r1,|L1.13084|
002fbc  b2c0              UXTB     r0,r0                 ;880
002fbe  5c0a              LDRB     r2,[r1,r0]            ;880
002fc0  1c40              ADDS     r0,r0,#1              ;880
002fc2  fa51f080          UXTAB    r0,r1,r0              ;880
002fc6  7800              LDRB     r0,[r0,#0]            ;880
002fc8  ea422000          ORR      r0,r2,r0,LSL #8       ;880
002fcc  0b01              LSRS     r1,r0,#12             ;880
002fce  f8581021          LDR      r1,[r8,r1,LSL #2]     ;880
002fd2  4788              BLX      r1                    ;880
002fd4  49d4              LDR      r1,|L1.13096|
002fd6  4606              MOV      r6,r0                 ;880
002fd8  7228              STRB     r0,[r5,#8]            ;880
002fda  5d89              LDRB     r1,[r1,r6]            ;880
002fdc  f0270082          BIC      r0,r7,#0x82           ;880
002fe0  46b1              MOV      r9,r6                 ;880
002fe2  ea400701          ORR      r7,r0,r1              ;880
002fe6  f000bd76          B.W      |L1.15062|
002fea  79e9              LDRB     r1,[r5,#7]            ;881  ; bIgnoreIllegalOps
002fec  2900              CMP      r1,#0                 ;881
002fee  f0408572          BNE.W    |L1.15062|
002ff2  0b01              LSRS     r1,r0,#12             ;881
002ff4  f8581021          LDR      r1,[r8,r1,LSL #2]     ;881
002ff8  4788              BLX      r1                    ;881
002ffa  49c8              LDR      r1,|L1.13084|
002ffc  b280              UXTH     r0,r0                 ;881
002ffe  5c0e              LDRB     r6,[r1,r0]            ;881
003000  49c9              LDR      r1,|L1.13096|
003002  722e              STRB     r6,[r5,#8]            ;881
003004  1c60              ADDS     r0,r4,#1              ;881
003006  b284              UXTH     r4,r0                 ;881
003008  5d89              LDRB     r1,[r1,r6]            ;881
00300a  f0270082          BIC      r0,r7,#0x82           ;881
00300e  46b1              MOV      r9,r6                 ;881
003010  ea400701          ORR      r7,r0,r1              ;881
003014  f000bd5f          B.W      |L1.15062|
003018  79e9              LDRB     r1,[r5,#7]            ;882  ; bIgnoreIllegalOps
00301a  2900              CMP      r1,#0                 ;882
00301c  f040855b          BNE.W    |L1.15062|
003020  0b01              LSRS     r1,r0,#12             ;882
003022  f8581021          LDR      r1,[r8,r1,LSL #2]     ;882
003026  4788              BLX      r1                    ;882
003028  4606              MOV      r6,r0                 ;882
00302a  1c61              ADDS     r1,r4,#1              ;882
00302c  b288              UXTH     r0,r1                 ;882
00302e  f3c13103          UBFX     r1,r1,#12,#4          ;882
003032  f8581021          LDR      r1,[r8,r1,LSL #2]     ;882
003036  4788              BLX      r1                    ;882
003038  ea462000          ORR      r0,r6,r0,LSL #8       ;882
00303c  0b01              LSRS     r1,r0,#12             ;882
00303e  f8581021          LDR      r1,[r8,r1,LSL #2]     ;882
003042  4788              BLX      r1                    ;882
003044  4ab8              LDR      r2,|L1.13096|
003046  7228              STRB     r0,[r5,#8]            ;882
003048  1ca1              ADDS     r1,r4,#2              ;882
00304a  4606              MOV      r6,r0                 ;882
00304c  4681              MOV      r9,r0                 ;882
00304e  b28c              UXTH     r4,r1                 ;882
003050  5c10              LDRB     r0,[r2,r0]            ;882
003052  f0270182          BIC      r1,r7,#0x82           ;882
003056  ea410700          ORR      r7,r1,r0              ;882
00305a  f000bd3c          B.W      |L1.15062|
00305e  79e9              LDRB     r1,[r5,#7]            ;883  ; bIgnoreIllegalOps
003060  2900              CMP      r1,#0                 ;883
003062  f0408538          BNE.W    |L1.15062|
003066  0b01              LSRS     r1,r0,#12             ;883
003068  f8581021          LDR      r1,[r8,r1,LSL #2]     ;883
00306c  4788              BLX      r1                    ;883
00306e  49ab              LDR      r1,|L1.13084|
003070  7228              STRB     r0,[r5,#8]            ;883
003072  5c0a              LDRB     r2,[r1,r0]            ;883
003074  1c40              ADDS     r0,r0,#1              ;883
003076  fa51f080          UXTAB    r0,r1,r0              ;883
00307a  7800              LDRB     r0,[r0,#0]            ;883
00307c  ea422100          ORR      r1,r2,r0,LSL #8       ;883
003080  1c60              ADDS     r0,r4,#1              ;883
003082  b284              UXTH     r4,r0                 ;883
003084  eb01000a          ADD      r0,r1,r10             ;883
003088  b280              UXTH     r0,r0                 ;883
00308a  0a02              LSRS     r2,r0,#8              ;883
00308c  0a09              LSRS     r1,r1,#8              ;883
00308e  428a              CMP      r2,r1                 ;883
003090  d142              BNE      |L1.12568|
                  |L1.12434|
003092  0b01              LSRS     r1,r0,#12             ;883
003094  f8581021          LDR      r1,[r8,r1,LSL #2]     ;883
003098  4788              BLX      r1                    ;883
00309a  4aa3              LDR      r2,|L1.13096|
00309c  7228              STRB     r0,[r5,#8]            ;883
00309e  4606              MOV      r6,r0                 ;883
0030a0  4681              MOV      r9,r0                 ;883
0030a2  5c10              LDRB     r0,[r2,r0]            ;883
0030a4  f0270182          BIC      r1,r7,#0x82           ;883
0030a8  ea410700          ORR      r7,r1,r0              ;883
0030ac  f000bd13          B.W      |L1.15062|
0030b0  79e9              LDRB     r1,[r5,#7]            ;884  ; bIgnoreIllegalOps
0030b2  2900              CMP      r1,#0                 ;884
0030b4  f040850f          BNE.W    |L1.15062|
0030b8  0b01              LSRS     r1,r0,#12             ;884
0030ba  f8581021          LDR      r1,[r8,r1,LSL #2]     ;884
0030be  4788              BLX      r1                    ;884
0030c0  4450              ADD      r0,r0,r10             ;884
0030c2  4996              LDR      r1,|L1.13084|
0030c4  b2c0              UXTB     r0,r0                 ;884
0030c6  5c0e              LDRB     r6,[r1,r0]            ;884
0030c8  4997              LDR      r1,|L1.13096|
0030ca  722e              STRB     r6,[r5,#8]            ;884
0030cc  1c60              ADDS     r0,r4,#1              ;884
0030ce  b284              UXTH     r4,r0                 ;884
0030d0  5d89              LDRB     r1,[r1,r6]            ;884
0030d2  f0270082          BIC      r0,r7,#0x82           ;884
0030d6  46b1              MOV      r9,r6                 ;884
0030d8  ea400701          ORR      r7,r0,r1              ;884
0030dc  f000bcfb          B.W      |L1.15062|
0030e0  79e9              LDRB     r1,[r5,#7]            ;885  ; bIgnoreIllegalOps
0030e2  2900              CMP      r1,#0                 ;885
0030e4  f04084f7          BNE.W    |L1.15062|
0030e8  0b01              LSRS     r1,r0,#12             ;885
0030ea  f8581021          LDR      r1,[r8,r1,LSL #2]     ;885
0030ee  4788              BLX      r1                    ;885
0030f0  4606              MOV      r6,r0                 ;885
0030f2  1c61              ADDS     r1,r4,#1              ;885
0030f4  b288              UXTH     r0,r1                 ;885
0030f6  f3c13103          UBFX     r1,r1,#12,#4          ;885
0030fa  f8581021          LDR      r1,[r8,r1,LSL #2]     ;885
0030fe  4788              BLX      r1                    ;885
003100  ea462100          ORR      r1,r6,r0,LSL #8       ;885
003104  eb01000a          ADD      r0,r1,r10             ;885
003108  1ca2              ADDS     r2,r4,#2              ;885
00310a  b280              UXTH     r0,r0                 ;885
00310c  b294              UXTH     r4,r2                 ;885
00310e  f3c12107          UBFX     r1,r1,#8,#8           ;885
003112  0a02              LSRS     r2,r0,#8              ;885
003114  4291              CMP      r1,r2                 ;885
003116  d0bc              BEQ      |L1.12434|
                  |L1.12568|
003118  6929              LDR      r1,[r5,#0x10]         ;885  ; nCPUCycle
00311a  1c49              ADDS     r1,r1,#1              ;885
00311c  6129              STR      r1,[r5,#0x10]         ;885  ; nCPUCycle
00311e  e7b8              B        |L1.12434|
003120  79e9              LDRB     r1,[r5,#7]            ;888  ; bIgnoreIllegalOps
003122  2900              CMP      r1,#0                 ;888
003124  f04084d7          BNE.W    |L1.15062|
003128  0b01              LSRS     r1,r0,#12             ;888
00312a  f8581021          LDR      r1,[r8,r1,LSL #2]     ;888
00312e  4788              BLX      r1                    ;888
003130  1c61              ADDS     r1,r4,#1              ;888
003132  b28c              UXTH     r4,r1                 ;888
003134  4448              ADD      r0,r0,r9              ;888
003136  4979              LDR      r1,|L1.13084|
003138  b2c0              UXTB     r0,r0                 ;888
00313a  5c0a              LDRB     r2,[r1,r0]            ;888
00313c  1c40              ADDS     r0,r0,#1              ;888
00313e  fa51f080          UXTAB    r0,r1,r0              ;888
003142  7800              LDRB     r0,[r0,#0]            ;888
003144  ea422000          ORR      r0,r2,r0,LSL #8       ;888
003148  0b01              LSRS     r1,r0,#12             ;888
00314a  9002              STR      r0,[sp,#8]            ;888
00314c  f8581021          LDR      r1,[r8,r1,LSL #2]     ;888
003150  4788              BLX      r1                    ;888
003152  1e40              SUBS     r0,r0,#1              ;888
003154  b2c1              UXTB     r1,r0                 ;888
003156  1a70              SUBS     r0,r6,r1              ;888
003158  b280              UXTH     r0,r0                 ;888
00315a  7229              STRB     r1,[r5,#8]            ;888
00315c  f0270283          BIC      r2,r7,#0x83           ;888
003160  0a03              LSRS     r3,r0,#8              ;888
003162  d17d              BNE      |L1.12896|
003164  e08b              B        |L1.12926|
                  |L1.12646|
003166  431a              ORRS     r2,r2,r3              ;888
003168  4b6f              LDR      r3,|L1.13096|
00316a  b2c0              UXTB     r0,r0                 ;888
00316c  5c18              LDRB     r0,[r3,r0]            ;888
00316e  4b6d              LDR      r3,|L1.13092|
003170  ea420700          ORR      r7,r2,r0              ;888
003174  9802              LDR      r0,[sp,#8]            ;888
003176  0b02              LSRS     r2,r0,#12             ;888
003178  f8532022          LDR      r2,[r3,r2,LSL #2]     ;888
00317c  4790              BLX      r2                    ;888
00317e  f000bcaa          B.W      |L1.15062|
003182  79e9              LDRB     r1,[r5,#7]            ;889  ; bIgnoreIllegalOps
003184  2900              CMP      r1,#0                 ;889
003186  f04084a6          BNE.W    |L1.15062|
00318a  0b01              LSRS     r1,r0,#12             ;889
00318c  f8581021          LDR      r1,[r8,r1,LSL #2]     ;889
003190  4788              BLX      r1                    ;889
003192  4a62              LDR      r2,|L1.13084|
003194  1c61              ADDS     r1,r4,#1              ;889
003196  b28c              UXTH     r4,r1                 ;889
003198  5c11              LDRB     r1,[r2,r0]            ;889
00319a  f0270c83          BIC      r12,r7,#0x83          ;889
00319e  1e49              SUBS     r1,r1,#1              ;889
0031a0  b2c9              UXTB     r1,r1                 ;889
0031a2  1a73              SUBS     r3,r6,r1              ;889
0031a4  b29b              UXTH     r3,r3                 ;889
0031a6  7229              STRB     r1,[r5,#8]            ;889
0031a8  0a1f              LSRS     r7,r3,#8              ;889
0031aa  bf14              ITE      NE                    ;889
0031ac  2700              MOVNE    r7,#0                 ;889
0031ae  2701              MOVEQ    r7,#1                 ;889
0031b0  ea4c0c07          ORR      r12,r12,r7            ;889
0031b4  4f5c              LDR      r7,|L1.13096|
0031b6  b2db              UXTB     r3,r3                 ;889
0031b8  5cfb              LDRB     r3,[r7,r3]            ;889
0031ba  ea4c0703          ORR      r7,r12,r3             ;889
                  |L1.12734|
0031be  5411              STRB     r1,[r2,r0]            ;877
0031c0  f000bc89          B.W      |L1.15062|
0031c4  79e9              LDRB     r1,[r5,#7]            ;890  ; bIgnoreIllegalOps
0031c6  2900              CMP      r1,#0                 ;890
0031c8  f0408485          BNE.W    |L1.15062|
0031cc  4954              LDR      r1,|L1.13088|
0031ce  0b02              LSRS     r2,r0,#12             ;890
0031d0  f8511022          LDR      r1,[r1,r2,LSL #2]     ;890
0031d4  4788              BLX      r1                    ;890
0031d6  1c61              ADDS     r1,r4,#1              ;890
0031d8  4680              MOV      r8,r0                 ;890
0031da  b288              UXTH     r0,r1                 ;890
0031dc  f3c13203          UBFX     r2,r1,#12,#4          ;890
0031e0  494f              LDR      r1,|L1.13088|
0031e2  f8511022          LDR      r1,[r1,r2,LSL #2]     ;890
0031e6  4788              BLX      r1                    ;890
0031e8  1ca1              ADDS     r1,r4,#2              ;890
0031ea  b28c              UXTH     r4,r1                 ;890
0031ec  ea482000          ORR      r0,r8,r0,LSL #8       ;890
0031f0  494b              LDR      r1,|L1.13088|
0031f2  0b02              LSRS     r2,r0,#12             ;890
0031f4  4680              MOV      r8,r0                 ;890
0031f6  f8511022          LDR      r1,[r1,r2,LSL #2]     ;890
0031fa  4788              BLX      r1                    ;890
0031fc  1e40              SUBS     r0,r0,#1              ;890
0031fe  b2c1              UXTB     r1,r0                 ;890
003200  1a70              SUBS     r0,r6,r1              ;890
003202  b280              UXTH     r0,r0                 ;890
003204  7229              STRB     r1,[r5,#8]            ;890
003206  f0270283          BIC      r2,r7,#0x83           ;890
00320a  0a03              LSRS     r3,r0,#8              ;890
00320c  bf14              ITE      NE                    ;890
00320e  2300              MOVNE    r3,#0                 ;890
003210  2301              MOVEQ    r3,#1                 ;890
003212  431a              ORRS     r2,r2,r3              ;890
003214  4b44              LDR      r3,|L1.13096|
003216  b2c0              UXTB     r0,r0                 ;890
003218  5c18              LDRB     r0,[r3,r0]            ;890
00321a  4b42              LDR      r3,|L1.13092|
00321c  ea420700          ORR      r7,r2,r0              ;890
003220  fa1ff088          UXTH     r0,r8                 ;890
003224  0b02              LSRS     r2,r0,#12             ;890
003226  f8532022          LDR      r2,[r3,r2,LSL #2]     ;890
00322a  4790              BLX      r2                    ;890
00322c  f000bc53          B.W      |L1.15062|
003230  79e9              LDRB     r1,[r5,#7]            ;891  ; bIgnoreIllegalOps
003232  2900              CMP      r1,#0                 ;891
003234  f040844f          BNE.W    |L1.15062|
003238  0b01              LSRS     r1,r0,#12             ;891
00323a  f8581021          LDR      r1,[r8,r1,LSL #2]     ;891
00323e  4788              BLX      r1                    ;891
003240  4936              LDR      r1,|L1.13084|
003242  b282              UXTH     r2,r0                 ;891
003244  1c40              ADDS     r0,r0,#1              ;891
003246  5c8a              LDRB     r2,[r1,r2]            ;891
003248  fa51f080          UXTAB    r0,r1,r0              ;891
00324c  7800              LDRB     r0,[r0,#0]            ;891
00324e  1c61              ADDS     r1,r4,#1              ;891
003250  ea422000          ORR      r0,r2,r0,LSL #8       ;891
003254  4450              ADD      r0,r0,r10             ;891
003256  b280              UXTH     r0,r0                 ;891
003258  b28c              UXTH     r4,r1                 ;891
00325a  0b01              LSRS     r1,r0,#12             ;891
00325c  9002              STR      r0,[sp,#8]            ;891
00325e  e000              B        |L1.12898|
                  |L1.12896|
003260  e00b              B        |L1.12922|
                  |L1.12898|
003262  f8581021          LDR      r1,[r8,r1,LSL #2]     ;891
003266  4788              BLX      r1                    ;891
003268  1e40              SUBS     r0,r0,#1              ;891
00326a  b2c1              UXTB     r1,r0                 ;891
00326c  1a70              SUBS     r0,r6,r1              ;891
00326e  b280              UXTH     r0,r0                 ;891
003270  7229              STRB     r1,[r5,#8]            ;891
003272  f0270283          BIC      r2,r7,#0x83           ;891
003276  0a03              LSRS     r3,r0,#8              ;891
003278  d001              BEQ      |L1.12926|
                  |L1.12922|
00327a  2300              MOVS     r3,#0                 ;891
00327c  e773              B        |L1.12646|
                  |L1.12926|
00327e  2301              MOVS     r3,#1                 ;891
003280  e771              B        |L1.12646|
003282  79e9              LDRB     r1,[r5,#7]            ;892  ; bIgnoreIllegalOps
003284  2900              CMP      r1,#0                 ;892
003286  f0408426          BNE.W    |L1.15062|
00328a  0b01              LSRS     r1,r0,#12             ;892
00328c  f8581021          LDR      r1,[r8,r1,LSL #2]     ;892
003290  4788              BLX      r1                    ;892
003292  eb000109          ADD      r1,r0,r9              ;892
003296  f3610007          BFI      r0,r1,#0,#8           ;892
00329a  4b20              LDR      r3,|L1.13084|
00329c  b282              UXTH     r2,r0                 ;892
00329e  1c61              ADDS     r1,r4,#1              ;892
0032a0  5c98              LDRB     r0,[r3,r2]            ;892
0032a2  b28c              UXTH     r4,r1                 ;892
0032a4  1e40              SUBS     r0,r0,#1              ;892
0032a6  b2c0              UXTB     r0,r0                 ;892
0032a8  1a31              SUBS     r1,r6,r0              ;892
0032aa  b289              UXTH     r1,r1                 ;892
0032ac  f0270c83          BIC      r12,r7,#0x83          ;892
0032b0  7228              STRB     r0,[r5,#8]            ;892
0032b2  0a0f              LSRS     r7,r1,#8              ;892
0032b4  bf14              ITE      NE                    ;892
0032b6  2700              MOVNE    r7,#0                 ;892
0032b8  2701              MOVEQ    r7,#1                 ;892
0032ba  ea4c0c07          ORR      r12,r12,r7            ;892
0032be  4f1a              LDR      r7,|L1.13096|
0032c0  b2c9              UXTB     r1,r1                 ;892
0032c2  5c79              LDRB     r1,[r7,r1]            ;892
0032c4  ea4c0701          ORR      r7,r12,r1             ;892
                  |L1.13000|
0032c8  5498              STRB     r0,[r3,r2]            ;842
0032ca  f000bc04          B.W      |L1.15062|
0032ce  79e9              LDRB     r1,[r5,#7]            ;893  ; bIgnoreIllegalOps
0032d0  2900              CMP      r1,#0                 ;893
0032d2  f0408400          BNE.W    |L1.15062|
0032d6  4912              LDR      r1,|L1.13088|
0032d8  0b02              LSRS     r2,r0,#12             ;893
0032da  f8511022          LDR      r1,[r1,r2,LSL #2]     ;893
0032de  4788              BLX      r1                    ;893
0032e0  1c61              ADDS     r1,r4,#1              ;893
0032e2  4680              MOV      r8,r0                 ;893
0032e4  b288              UXTH     r0,r1                 ;893
0032e6  f3c13203          UBFX     r2,r1,#12,#4          ;893
0032ea  490d              LDR      r1,|L1.13088|
0032ec  f8511022          LDR      r1,[r1,r2,LSL #2]     ;893
0032f0  4788              BLX      r1                    ;893
0032f2  ea482000          ORR      r0,r8,r0,LSL #8       ;893
0032f6  1ca1              ADDS     r1,r4,#2              ;893
0032f8  b28c              UXTH     r4,r1                 ;893
0032fa  4450              ADD      r0,r0,r10             ;893
0032fc  b280              UXTH     r0,r0                 ;893
0032fe  4908              LDR      r1,|L1.13088|
003300  0b02              LSRS     r2,r0,#12             ;893
003302  4680              MOV      r8,r0                 ;893
003304  f8511022          LDR      r1,[r1,r2,LSL #2]     ;893
003308  4788              BLX      r1                    ;893
00330a  1e40              SUBS     r0,r0,#1              ;893
00330c  b2c1              UXTB     r1,r0                 ;893
00330e  1a70              SUBS     r0,r6,r1              ;893
003310  b280              UXTH     r0,r0                 ;893
003312  7229              STRB     r1,[r5,#8]            ;893
003314  f0270283          BIC      r2,r7,#0x83           ;893
003318  0a03              LSRS     r3,r0,#8              ;893
00331a  e007              B        |L1.13100|
                  |L1.13084|
                          DCD      ||.bss||
                  |L1.13088|
                          DCD      ||.bss||+0x800
                  |L1.13092|
                          DCD      ||.bss||+0x840
                  |L1.13096|
                          DCD      ||.constdata||+0x100
                  |L1.13100|
00332c  d136              BNE      |L1.13212|
00332e  e037              B        |L1.13216|
                  |L1.13104|
003330  431a              ORRS     r2,r2,r3              ;893
003332  4bff              LDR      r3,|L1.14128|
003334  b2c0              UXTB     r0,r0                 ;893
003336  5c18              LDRB     r0,[r3,r0]            ;893
003338  4bfe              LDR      r3,|L1.14132|
00333a  ea420700          ORR      r7,r2,r0              ;893
00333e  ea4f3218          LSR      r2,r8,#12             ;893
003342  4640              MOV      r0,r8                 ;893
003344  f8532022          LDR      r2,[r3,r2,LSL #2]     ;893
003348  4790              BLX      r2                    ;893
00334a  f000bbc4          B.W      |L1.15062|
00334e  79e9              LDRB     r1,[r5,#7]            ;894  ; bIgnoreIllegalOps
003350  2900              CMP      r1,#0                 ;894
003352  f04083c0          BNE.W    |L1.15062|
003356  49f8              LDR      r1,|L1.14136|
003358  0b02              LSRS     r2,r0,#12             ;894
00335a  f8511022          LDR      r1,[r1,r2,LSL #2]     ;894
00335e  4788              BLX      r1                    ;894
003360  1c61              ADDS     r1,r4,#1              ;894
003362  4680              MOV      r8,r0                 ;894
003364  b288              UXTH     r0,r1                 ;894
003366  f3c13203          UBFX     r2,r1,#12,#4          ;894
00336a  49f3              LDR      r1,|L1.14136|
00336c  f8511022          LDR      r1,[r1,r2,LSL #2]     ;894
003370  4788              BLX      r1                    ;894
003372  ea482000          ORR      r0,r8,r0,LSL #8       ;894
003376  1ca1              ADDS     r1,r4,#2              ;894
003378  b28c              UXTH     r4,r1                 ;894
00337a  4448              ADD      r0,r0,r9              ;894
00337c  b280              UXTH     r0,r0                 ;894
00337e  49ee              LDR      r1,|L1.14136|
003380  0b02              LSRS     r2,r0,#12             ;894
003382  4680              MOV      r8,r0                 ;894
003384  f8511022          LDR      r1,[r1,r2,LSL #2]     ;894
003388  4788              BLX      r1                    ;894
00338a  1e40              SUBS     r0,r0,#1              ;894
00338c  b2c1              UXTB     r1,r0                 ;894
00338e  1a70              SUBS     r0,r6,r1              ;894
003390  b280              UXTH     r0,r0                 ;894
003392  7229              STRB     r1,[r5,#8]            ;894
003394  f0270283          BIC      r2,r7,#0x83           ;894
003398  0a03              LSRS     r3,r0,#8              ;894
00339a  d001              BEQ      |L1.13216|
                  |L1.13212|
00339c  2300              MOVS     r3,#0                 ;894
00339e  e7c7              B        |L1.13104|
                  |L1.13216|
0033a0  2301              MOVS     r3,#1                 ;894
0033a2  e7c5              B        |L1.13104|
0033a4  79e9              LDRB     r1,[r5,#7]            ;897  ; bIgnoreIllegalOps
0033a6  2900              CMP      r1,#0                 ;897
0033a8  f0408395          BNE.W    |L1.15062|
0033ac  0b01              LSRS     r1,r0,#12             ;897
0033ae  f8581021          LDR      r1,[r8,r1,LSL #2]     ;897
0033b2  4788              BLX      r1                    ;897
0033b4  1c61              ADDS     r1,r4,#1              ;897
0033b6  b28c              UXTH     r4,r1                 ;897
0033b8  4448              ADD      r0,r0,r9              ;897
0033ba  49e0              LDR      r1,|L1.14140|
0033bc  b2c0              UXTB     r0,r0                 ;897
0033be  5c0a              LDRB     r2,[r1,r0]            ;897
0033c0  1c40              ADDS     r0,r0,#1              ;897
0033c2  fa51f080          UXTAB    r0,r1,r0              ;897
0033c6  7800              LDRB     r0,[r0,#0]            ;897
0033c8  ea422000          ORR      r0,r2,r0,LSL #8       ;897
0033cc  0b01              LSRS     r1,r0,#12             ;897
0033ce  9002              STR      r0,[sp,#8]            ;897
0033d0  f8581021          LDR      r1,[r8,r1,LSL #2]     ;897
0033d4  4788              BLX      r1                    ;897
0033d6  1c40              ADDS     r0,r0,#1              ;897
0033d8  b2c1              UXTB     r1,r0                 ;897
0033da  2201              MOVS     r2,#1                 ;897
0033dc  1a70              SUBS     r0,r6,r1              ;897
0033de  43ba              BICS     r2,r2,r7              ;897
0033e0  1a80              SUBS     r0,r0,r2              ;897
0033e2  b282              UXTH     r2,r0                 ;897
0033e4  4bd2              LDR      r3,|L1.14128|
0033e6  b2d0              UXTB     r0,r2                 ;897
0033e8  7229              STRB     r1,[r5,#8]            ;897
0033ea  5c1b              LDRB     r3,[r3,r0]            ;897
0033ec  f0070c0c          AND      r12,r7,#0xc           ;897
0033f0  ea43030c          ORR      r3,r3,r12             ;897
0033f4  ea860c01          EOR      r12,r6,r1             ;897
0033f8  4046              EORS     r6,r6,r0              ;897
0033fa  ea0c0c06          AND      r12,r12,r6            ;897
0033fe  f01c0c80          ANDS     r12,r12,#0x80         ;897
003402  bf18              IT       NE                    ;897
003404  f04f0c40          MOVNE    r12,#0x40             ;897
003408  0a12              LSRS     r2,r2,#8              ;897
00340a  d07d              BEQ      |L1.13576|
00340c  e0c0              B        |L1.13712|
00340e  bf00              NOP                            ;897
                  |L1.13328|
003410  ea4c0202          ORR      r2,r12,r2             ;897
003414  4606              MOV      r6,r0                 ;897
003416  ea430702          ORR      r7,r3,r2              ;897
00341a  9802              LDR      r0,[sp,#8]            ;897
00341c  4bc5              LDR      r3,|L1.14132|
00341e  0b02              LSRS     r2,r0,#12             ;897
003420  f8532022          LDR      r2,[r3,r2,LSL #2]     ;897
003424  4790              BLX      r2                    ;897
003426  f000bb56          B.W      |L1.15062|
00342a  79e9              LDRB     r1,[r5,#7]            ;898  ; bIgnoreIllegalOps
00342c  2900              CMP      r1,#0                 ;898
00342e  f0408352          BNE.W    |L1.15062|
003432  0b01              LSRS     r1,r0,#12             ;898
003434  f8581021          LDR      r1,[r8,r1,LSL #2]     ;898
003438  4788              BLX      r1                    ;898
00343a  f8df8300          LDR      r8,|L1.14140|
00343e  4686              MOV      lr,r0                 ;898
003440  1c61              ADDS     r1,r4,#1              ;898
003442  f818000e          LDRB     r0,[r8,lr]            ;898
003446  b28c              UXTH     r4,r1                 ;898
003448  1c40              ADDS     r0,r0,#1              ;898
00344a  b2c1              UXTB     r1,r0                 ;898
00344c  2201              MOVS     r2,#1                 ;898
00344e  1a70              SUBS     r0,r6,r1              ;898
003450  43ba              BICS     r2,r2,r7              ;898
003452  1a80              SUBS     r0,r0,r2              ;898
003454  b282              UXTH     r2,r0                 ;898
003456  4bb6              LDR      r3,|L1.14128|
003458  b2d0              UXTB     r0,r2                 ;898
00345a  7229              STRB     r1,[r5,#8]            ;898
00345c  5c1b              LDRB     r3,[r3,r0]            ;898
00345e  f0070c0c          AND      r12,r7,#0xc           ;898
003462  ea43030c          ORR      r3,r3,r12             ;898
003466  ea860c01          EOR      r12,r6,r1             ;898
00346a  4046              EORS     r6,r6,r0              ;898
00346c  ea0c0c06          AND      r12,r12,r6            ;898
003470  f01c0c80          ANDS     r12,r12,#0x80         ;898
003474  bf18              IT       NE                    ;898
003476  f04f0c40          MOVNE    r12,#0x40             ;898
00347a  0a12              LSRS     r2,r2,#8              ;898
00347c  bf0c              ITE      EQ                    ;898
00347e  2201              MOVEQ    r2,#1                 ;898
003480  2200              MOVNE    r2,#0                 ;898
003482  ea4c0202          ORR      r2,r12,r2             ;898
003486  ea430702          ORR      r7,r3,r2              ;898
00348a  4606              MOV      r6,r0                 ;898
00348c  f808100e          STRB     r1,[r8,lr]            ;898
003490  f000bb21          B.W      |L1.15062|
003494  79e9              LDRB     r1,[r5,#7]            ;899  ; bIgnoreIllegalOps
003496  2900              CMP      r1,#0                 ;899
003498  f040831d          BNE.W    |L1.15062|
00349c  49a6              LDR      r1,|L1.14136|
00349e  0b02              LSRS     r2,r0,#12             ;899
0034a0  f8511022          LDR      r1,[r1,r2,LSL #2]     ;899
0034a4  4788              BLX      r1                    ;899
0034a6  1c61              ADDS     r1,r4,#1              ;899
0034a8  4680              MOV      r8,r0                 ;899
0034aa  b288              UXTH     r0,r1                 ;899
0034ac  f3c13203          UBFX     r2,r1,#12,#4          ;899
0034b0  49a1              LDR      r1,|L1.14136|
0034b2  f8511022          LDR      r1,[r1,r2,LSL #2]     ;899
0034b6  4788              BLX      r1                    ;899
0034b8  1ca1              ADDS     r1,r4,#2              ;899
0034ba  b28c              UXTH     r4,r1                 ;899
0034bc  ea482000          ORR      r0,r8,r0,LSL #8       ;899
0034c0  499d              LDR      r1,|L1.14136|
0034c2  0b02              LSRS     r2,r0,#12             ;899
0034c4  4680              MOV      r8,r0                 ;899
0034c6  f8511022          LDR      r1,[r1,r2,LSL #2]     ;899
0034ca  4788              BLX      r1                    ;899
0034cc  1c40              ADDS     r0,r0,#1              ;899
0034ce  b2c1              UXTB     r1,r0                 ;899
0034d0  2201              MOVS     r2,#1                 ;899
0034d2  1a70              SUBS     r0,r6,r1              ;899
0034d4  43ba              BICS     r2,r2,r7              ;899
0034d6  1a80              SUBS     r0,r0,r2              ;899
0034d8  b282              UXTH     r2,r0                 ;899
0034da  4b95              LDR      r3,|L1.14128|
0034dc  b2d0              UXTB     r0,r2                 ;899
0034de  7229              STRB     r1,[r5,#8]            ;899
0034e0  5c1b              LDRB     r3,[r3,r0]            ;899
0034e2  f0070c0c          AND      r12,r7,#0xc           ;899
0034e6  ea43030c          ORR      r3,r3,r12             ;899
0034ea  ea860c01          EOR      r12,r6,r1             ;899
0034ee  4046              EORS     r6,r6,r0              ;899
0034f0  ea0c0c06          AND      r12,r12,r6            ;899
0034f4  f01c0c80          ANDS     r12,r12,#0x80         ;899
0034f8  bf18              IT       NE                    ;899
0034fa  f04f0c40          MOVNE    r12,#0x40             ;899
0034fe  0a12              LSRS     r2,r2,#8              ;899
003500  bf0c              ITE      EQ                    ;899
003502  2201              MOVEQ    r2,#1                 ;899
003504  2200              MOVNE    r2,#0                 ;899
003506  e000              B        |L1.13578|
                  |L1.13576|
003508  e044              B        |L1.13716|
                  |L1.13578|
00350a  ea4c0202          ORR      r2,r12,r2             ;899
00350e  ea430702          ORR      r7,r3,r2              ;899
003512  4606              MOV      r6,r0                 ;899
003514  fa1ff088          UXTH     r0,r8                 ;899
003518  4b86              LDR      r3,|L1.14132|
00351a  0b02              LSRS     r2,r0,#12             ;899
00351c  f8532022          LDR      r2,[r3,r2,LSL #2]     ;899
003520  4790              BLX      r2                    ;899
003522  f000bad8          B.W      |L1.15062|
003526  79e9              LDRB     r1,[r5,#7]            ;900  ; bIgnoreIllegalOps
003528  2900              CMP      r1,#0                 ;900
00352a  f04082d4          BNE.W    |L1.15062|
00352e  0b01              LSRS     r1,r0,#12             ;900
003530  f8581021          LDR      r1,[r8,r1,LSL #2]     ;900
003534  4788              BLX      r1                    ;900
003536  4981              LDR      r1,|L1.14140|
003538  b282              UXTH     r2,r0                 ;900
00353a  1c40              ADDS     r0,r0,#1              ;900
00353c  5c8a              LDRB     r2,[r1,r2]            ;900
00353e  fa51f080          UXTAB    r0,r1,r0              ;900
003542  7800              LDRB     r0,[r0,#0]            ;900
003544  1c61              ADDS     r1,r4,#1              ;900
003546  ea422000          ORR      r0,r2,r0,LSL #8       ;900
00354a  4450              ADD      r0,r0,r10             ;900
00354c  b280              UXTH     r0,r0                 ;900
00354e  b28c              UXTH     r4,r1                 ;900
003550  0b01              LSRS     r1,r0,#12             ;900
003552  9002              STR      r0,[sp,#8]            ;900
003554  f8581021          LDR      r1,[r8,r1,LSL #2]     ;900
003558  4788              BLX      r1                    ;900
00355a  1c40              ADDS     r0,r0,#1              ;900
00355c  b2c1              UXTB     r1,r0                 ;900
00355e  2201              MOVS     r2,#1                 ;900
003560  1a70              SUBS     r0,r6,r1              ;900
003562  43ba              BICS     r2,r2,r7              ;900
003564  1a80              SUBS     r0,r0,r2              ;900
003566  b282              UXTH     r2,r0                 ;900
003568  4b71              LDR      r3,|L1.14128|
00356a  b2d0              UXTB     r0,r2                 ;900
00356c  7229              STRB     r1,[r5,#8]            ;900
00356e  5c1b              LDRB     r3,[r3,r0]            ;900
003570  f0070c0c          AND      r12,r7,#0xc           ;900
003574  ea43030c          ORR      r3,r3,r12             ;900
003578  ea860c01          EOR      r12,r6,r1             ;900
00357c  4046              EORS     r6,r6,r0              ;900
00357e  ea0c0c06          AND      r12,r12,r6            ;900
003582  f01c0c80          ANDS     r12,r12,#0x80         ;900
003586  bf18              IT       NE                    ;900
003588  f04f0c40          MOVNE    r12,#0x40             ;900
00358c  0a12              LSRS     r2,r2,#8              ;900
00358e  d001              BEQ      |L1.13716|
                  |L1.13712|
003590  2200              MOVS     r2,#0                 ;900
003592  e73d              B        |L1.13328|
                  |L1.13716|
003594  2201              MOVS     r2,#1                 ;900
003596  e73b              B        |L1.13328|
003598  79e9              LDRB     r1,[r5,#7]            ;901  ; bIgnoreIllegalOps
00359a  2900              CMP      r1,#0                 ;901
00359c  f040829b          BNE.W    |L1.15062|
0035a0  0b01              LSRS     r1,r0,#12             ;901
0035a2  f8581021          LDR      r1,[r8,r1,LSL #2]     ;901
0035a6  4788              BLX      r1                    ;901
0035a8  eb000109          ADD      r1,r0,r9              ;901
0035ac  f3610007          BFI      r0,r1,#0,#8           ;901
0035b0  f8dfe188          LDR      lr,|L1.14140|
0035b4  fa1ff880          UXTH     r8,r0                 ;901
0035b8  1c61              ADDS     r1,r4,#1              ;901
0035ba  f81e0008          LDRB     r0,[lr,r8]            ;901
0035be  b28c              UXTH     r4,r1                 ;901
0035c0  1c40              ADDS     r0,r0,#1              ;901
0035c2  b2c1              UXTB     r1,r0                 ;901
0035c4  2201              MOVS     r2,#1                 ;901
0035c6  1a70              SUBS     r0,r6,r1              ;901
0035c8  43ba              BICS     r2,r2,r7              ;901
0035ca  1a80              SUBS     r0,r0,r2              ;901
0035cc  b282              UXTH     r2,r0                 ;901
0035ce  4b58              LDR      r3,|L1.14128|
0035d0  b2d0              UXTB     r0,r2                 ;901
0035d2  7229              STRB     r1,[r5,#8]            ;901
0035d4  5c1b              LDRB     r3,[r3,r0]            ;901
0035d6  f0070c0c          AND      r12,r7,#0xc           ;901
0035da  ea43030c          ORR      r3,r3,r12             ;901
0035de  ea860c01          EOR      r12,r6,r1             ;901
0035e2  4046              EORS     r6,r6,r0              ;901
0035e4  ea0c0c06          AND      r12,r12,r6            ;901
0035e8  f01c0c80          ANDS     r12,r12,#0x80         ;901
0035ec  bf18              IT       NE                    ;901
0035ee  f04f0c40          MOVNE    r12,#0x40             ;901
0035f2  0a12              LSRS     r2,r2,#8              ;901
0035f4  bf0c              ITE      EQ                    ;901
0035f6  2201              MOVEQ    r2,#1                 ;901
0035f8  2200              MOVNE    r2,#0                 ;901
0035fa  ea4c0202          ORR      r2,r12,r2             ;901
0035fe  ea430702          ORR      r7,r3,r2              ;901
003602  4606              MOV      r6,r0                 ;901
003604  f80e1008          STRB     r1,[lr,r8]            ;901
003608  e265              B        |L1.15062|
00360a  79e9              LDRB     r1,[r5,#7]            ;902  ; bIgnoreIllegalOps
00360c  2900              CMP      r1,#0                 ;902
00360e  d141              BNE      |L1.13972|
003610  4949              LDR      r1,|L1.14136|
003612  0b02              LSRS     r2,r0,#12             ;902
003614  f8511022          LDR      r1,[r1,r2,LSL #2]     ;902
003618  4788              BLX      r1                    ;902
00361a  1c61              ADDS     r1,r4,#1              ;902
00361c  4680              MOV      r8,r0                 ;902
00361e  b288              UXTH     r0,r1                 ;902
003620  f3c13203          UBFX     r2,r1,#12,#4          ;902
003624  4944              LDR      r1,|L1.14136|
003626  f8511022          LDR      r1,[r1,r2,LSL #2]     ;902
00362a  4788              BLX      r1                    ;902
00362c  ea482000          ORR      r0,r8,r0,LSL #8       ;902
003630  1ca1              ADDS     r1,r4,#2              ;902
003632  b28c              UXTH     r4,r1                 ;902
003634  4450              ADD      r0,r0,r10             ;902
003636  b280              UXTH     r0,r0                 ;902
003638  493f              LDR      r1,|L1.14136|
00363a  0b02              LSRS     r2,r0,#12             ;902
00363c  4680              MOV      r8,r0                 ;902
00363e  f8511022          LDR      r1,[r1,r2,LSL #2]     ;902
003642  4788              BLX      r1                    ;902
003644  1c40              ADDS     r0,r0,#1              ;902
003646  b2c1              UXTB     r1,r0                 ;902
003648  2201              MOVS     r2,#1                 ;902
00364a  1a70              SUBS     r0,r6,r1              ;902
00364c  43ba              BICS     r2,r2,r7              ;902
00364e  1a80              SUBS     r0,r0,r2              ;902
003650  b282              UXTH     r2,r0                 ;902
003652  4b37              LDR      r3,|L1.14128|
003654  b2d0              UXTB     r0,r2                 ;902
003656  7229              STRB     r1,[r5,#8]            ;902
003658  5c1b              LDRB     r3,[r3,r0]            ;902
00365a  f0070c0c          AND      r12,r7,#0xc           ;902
00365e  ea43030c          ORR      r3,r3,r12             ;902
003662  ea860c01          EOR      r12,r6,r1             ;902
003666  4046              EORS     r6,r6,r0              ;902
003668  ea0c0c06          AND      r12,r12,r6            ;902
00366c  f01c0c80          ANDS     r12,r12,#0x80         ;902
003670  bf18              IT       NE                    ;902
003672  f04f0c40          MOVNE    r12,#0x40             ;902
003676  0a12              LSRS     r2,r2,#8              ;902
003678  d047              BEQ      |L1.14090|
00367a  e044              B        |L1.14086|
                  |L1.13948|
00367c  ea4c0202          ORR      r2,r12,r2             ;902
003680  ea430702          ORR      r7,r3,r2              ;902
003684  4b2b              LDR      r3,|L1.14132|
003686  ea4f3218          LSR      r2,r8,#12             ;902
00368a  4606              MOV      r6,r0                 ;902
00368c  f8532022          LDR      r2,[r3,r2,LSL #2]     ;902
003690  4640              MOV      r0,r8                 ;902
003692  4790              BLX      r2                    ;902
                  |L1.13972|
003694  e21f              B        |L1.15062|
003696  79e9              LDRB     r1,[r5,#7]            ;903  ; bIgnoreIllegalOps
003698  2900              CMP      r1,#0                 ;903
00369a  d16e              BNE      |L1.14202|
00369c  4926              LDR      r1,|L1.14136|
00369e  0b02              LSRS     r2,r0,#12             ;903
0036a0  f8511022          LDR      r1,[r1,r2,LSL #2]     ;903
0036a4  4788              BLX      r1                    ;903
0036a6  1c61              ADDS     r1,r4,#1              ;903
0036a8  4680              MOV      r8,r0                 ;903
0036aa  b288              UXTH     r0,r1                 ;903
0036ac  f3c13203          UBFX     r2,r1,#12,#4          ;903
0036b0  4921              LDR      r1,|L1.14136|
0036b2  f8511022          LDR      r1,[r1,r2,LSL #2]     ;903
0036b6  4788              BLX      r1                    ;903
0036b8  ea482000          ORR      r0,r8,r0,LSL #8       ;903
0036bc  1ca1              ADDS     r1,r4,#2              ;903
0036be  b28c              UXTH     r4,r1                 ;903
0036c0  4448              ADD      r0,r0,r9              ;903
0036c2  b280              UXTH     r0,r0                 ;903
0036c4  491c              LDR      r1,|L1.14136|
0036c6  0b02              LSRS     r2,r0,#12             ;903
0036c8  4680              MOV      r8,r0                 ;903
0036ca  f8511022          LDR      r1,[r1,r2,LSL #2]     ;903
0036ce  4788              BLX      r1                    ;903
0036d0  1c40              ADDS     r0,r0,#1              ;903
0036d2  b2c1              UXTB     r1,r0                 ;903
0036d4  2201              MOVS     r2,#1                 ;903
0036d6  1a70              SUBS     r0,r6,r1              ;903
0036d8  43ba              BICS     r2,r2,r7              ;903
0036da  1a80              SUBS     r0,r0,r2              ;903
0036dc  b282              UXTH     r2,r0                 ;903
0036de  4b14              LDR      r3,|L1.14128|
0036e0  b2d0              UXTB     r0,r2                 ;903
0036e2  7229              STRB     r1,[r5,#8]            ;903
0036e4  5c1b              LDRB     r3,[r3,r0]            ;903
0036e6  f0070c0c          AND      r12,r7,#0xc           ;903
0036ea  ea43030c          ORR      r3,r3,r12             ;903
0036ee  ea860c01          EOR      r12,r6,r1             ;903
0036f2  4046              EORS     r6,r6,r0              ;903
0036f4  ea0c0c06          AND      r12,r12,r6            ;903
0036f8  f01c0c80          ANDS     r12,r12,#0x80         ;903
0036fc  bf18              IT       NE                    ;903
0036fe  f04f0c40          MOVNE    r12,#0x40             ;903
003702  0a12              LSRS     r2,r2,#8              ;903
003704  d001              BEQ      |L1.14090|
                  |L1.14086|
003706  2200              MOVS     r2,#0                 ;903
003708  e7b8              B        |L1.13948|
                  |L1.14090|
00370a  2201              MOVS     r2,#1                 ;903
00370c  e7b6              B        |L1.13948|
00370e  79e9              LDRB     r1,[r5,#7]            ;907  ; bIgnoreIllegalOps
003710  bb99              CBNZ     r1,|L1.14202|
003712  0b01              LSRS     r1,r0,#12             ;907
003714  f8581021          LDR      r1,[r8,r1,LSL #2]     ;907
003718  4788              BLX      r1                    ;907
00371a  7228              STRB     r0,[r5,#8]            ;907
00371c  1c61              ADDS     r1,r4,#1              ;907
00371e  b28c              UXTH     r4,r1                 ;907
003720  4030              ANDS     r0,r0,r6              ;907
003722  05c1              LSLS     r1,r0,#23             ;907
003724  f0270283          BIC      r2,r7,#0x83           ;907
003728  f0000001          AND      r0,r0,#1              ;907
00372c  4310              ORRS     r0,r0,r2              ;907
00372e  e007              B        |L1.14144|
                  |L1.14128|
                          DCD      ||.constdata||+0x100
                  |L1.14132|
                          DCD      ||.bss||+0x840
                  |L1.14136|
                          DCD      ||.bss||+0x800
                  |L1.14140|
                          DCD      ||.bss||
                  |L1.14144|
003740  0e0e              LSRS     r6,r1,#24             ;907
003742  49ee              LDR      r1,|L1.15100|
003744  5d89              LDRB     r1,[r1,r6]            ;907
003746  ea400701          ORR      r7,r0,r1              ;907
00374a  e1c4              B        |L1.15062|
00374c  79e9              LDRB     r1,[r5,#7]            ;911  ; bIgnoreIllegalOps
00374e  b9a1              CBNZ     r1,|L1.14202|
003750  0b01              LSRS     r1,r0,#12             ;911
003752  f8581021          LDR      r1,[r8,r1,LSL #2]     ;911
003756  4788              BLX      r1                    ;911
003758  7228              STRB     r0,[r5,#8]            ;911
00375a  1c61              ADDS     r1,r4,#1              ;911
00375c  b28c              UXTH     r4,r1                 ;911
00375e  4030              ANDS     r0,r0,r6              ;911
003760  0841              LSRS     r1,r0,#1              ;911
003762  ea4111c7          ORR      r1,r1,r7,LSL #7       ;911
003766  b2ce              UXTB     r6,r1                 ;911
003768  49e4              LDR      r1,|L1.15100|
00376a  f0270283          BIC      r2,r7,#0x83           ;911
00376e  f0000001          AND      r0,r0,#1              ;911
003772  5d89              LDRB     r1,[r1,r6]            ;911
003774  4310              ORRS     r0,r0,r2              ;911
003776  ea400701          ORR      r7,r0,r1              ;911
                  |L1.14202|
00377a  e1ac              B        |L1.15062|
00377c  79e9              LDRB     r1,[r5,#7]            ;915  ; bIgnoreIllegalOps
00377e  bb11              CBNZ     r1,|L1.14278|
003780  0b01              LSRS     r1,r0,#12             ;915
003782  f8581021          LDR      r1,[r8,r1,LSL #2]     ;915
003786  4788              BLX      r1                    ;915
003788  1c61              ADDS     r1,r4,#1              ;915
00378a  b28c              UXTH     r4,r1                 ;915
00378c  49db              LDR      r1,|L1.15100|
00378e  ea090600          AND      r6,r9,r0              ;915
003792  7228              STRB     r0,[r5,#8]            ;915
003794  5d89              LDRB     r1,[r1,r6]            ;915
003796  f0270082          BIC      r0,r7,#0x82           ;915
00379a  ea400701          ORR      r7,r0,r1              ;915
00379e  e19a              B        |L1.15062|
0037a0  79e9              LDRB     r1,[r5,#7]            ;919  ; bIgnoreIllegalOps
0037a2  b981              CBNZ     r1,|L1.14278|
0037a4  0b01              LSRS     r1,r0,#12             ;919
0037a6  f8581021          LDR      r1,[r8,r1,LSL #2]     ;919
0037aa  4788              BLX      r1                    ;919
0037ac  1c61              ADDS     r1,r4,#1              ;919
0037ae  7228              STRB     r0,[r5,#8]            ;919
0037b0  b28c              UXTH     r4,r1                 ;919
0037b2  f04000ee          ORR      r0,r0,#0xee           ;919
0037b6  49d1              LDR      r1,|L1.15100|
0037b8  4006              ANDS     r6,r6,r0              ;919
0037ba  f0270082          BIC      r0,r7,#0x82           ;920
0037be  5d89              LDRB     r1,[r1,r6]            ;920
0037c0  46b1              MOV      r9,r6                 ;919
0037c2  ea400701          ORR      r7,r0,r1              ;920
                  |L1.14278|
0037c6  e186              B        |L1.15062|
0037c8  79e9              LDRB     r1,[r5,#7]            ;925  ; bIgnoreIllegalOps
0037ca  bbe9              CBNZ     r1,|L1.14408|
0037cc  0b01              LSRS     r1,r0,#12             ;926
0037ce  f8581021          LDR      r1,[r8,r1,LSL #2]     ;926
0037d2  4788              BLX      r1                    ;926
0037d4  1c61              ADDS     r1,r4,#1              ;926
0037d6  b28c              UXTH     r4,r1                 ;926
0037d8  7228              STRB     r0,[r5,#8]            ;926
0037da  ea090106          AND      r1,r9,r6              ;926
0037de  1a08              SUBS     r0,r1,r0              ;926
0037e0  b280              UXTH     r0,r0                 ;926
0037e2  f00009ff          AND      r9,r0,#0xff           ;926
0037e6  f0270183          BIC      r1,r7,#0x83           ;927
0037ea  0a00              LSRS     r0,r0,#8              ;927
0037ec  bf18              IT       NE                    ;927
0037ee  2001              MOVNE    r0,#1                 ;927
0037f0  4308              ORRS     r0,r0,r1              ;927
0037f2  49c2              LDR      r1,|L1.15100|
0037f4  f8111009          LDRB     r1,[r1,r9]            ;927
                  |L1.14328|
0037f8  ea400701          ORR      r7,r0,r1              ;699
0037fc  e16b              B        |L1.15062|
                  |L1.14334|
0037fe  79e9              LDRB     r1,[r5,#7]            ;934  ; bIgnoreIllegalOps
003800  2900              CMP      r1,#0                 ;934
003802  bf04              ITT      EQ                    ;935
003804  1c60              ADDEQ    r0,r4,#1              ;935
003806  b284              UXTHEQ   r4,r0                 ;935
003808  e165              B        |L1.15062|
00380a  79e9              LDRB     r1,[r5,#7]            ;944  ; bIgnoreIllegalOps
00380c  2900              CMP      r1,#0                 ;944
00380e  bf08              IT       EQ                    ;945
003810  1ca0              ADDEQ    r0,r4,#2              ;945
003812  d119              BNE      |L1.14408|
003814  f7febb22          B        |L1.7772|
003818  79e9              LDRB     r1,[r5,#7]            ;947  ; bIgnoreIllegalOps
00381a  b9a9              CBNZ     r1,|L1.14408|
00381c  49b8              LDR      r1,|L1.15104|
00381e  0b02              LSRS     r2,r0,#12             ;948
003820  f8511022          LDR      r1,[r1,r2,LSL #2]     ;948
003824  4788              BLX      r1                    ;948
003826  1c61              ADDS     r1,r4,#1              ;948
003828  4680              MOV      r8,r0                 ;948
00382a  b288              UXTH     r0,r1                 ;948
00382c  f3c13203          UBFX     r2,r1,#12,#4          ;948
003830  49b3              LDR      r1,|L1.15104|
003832  f8511022          LDR      r1,[r1,r2,LSL #2]     ;948
003836  4788              BLX      r1                    ;948
003838  ea482100          ORR      r1,r8,r0,LSL #8       ;948
00383c  eb010009          ADD      r0,r1,r9              ;948
003840  1ca2              ADDS     r2,r4,#2              ;948
003842  b280              UXTH     r0,r0                 ;948
003844  b294              UXTH     r4,r2                 ;948
003846  e000              B        |L1.14410|
                  |L1.14408|
003848  e05a              B        |L1.14592|
                  |L1.14410|
00384a  f3c12107          UBFX     r1,r1,#8,#8           ;948
00384e  0a02              LSRS     r2,r0,#8              ;948
003850  4291              CMP      r1,r2                 ;948
003852  d002              BEQ      |L1.14426|
003854  6929              LDR      r1,[r5,#0x10]         ;948  ; nCPUCycle
003856  1c49              ADDS     r1,r1,#1              ;948
003858  6129              STR      r1,[r5,#0x10]         ;948  ; nCPUCycle
                  |L1.14426|
00385a  49a9              LDR      r1,|L1.15104|
00385c  0b02              LSRS     r2,r0,#12             ;948
00385e  f8511022          LDR      r1,[r1,r2,LSL #2]     ;948
003862  4788              BLX      r1                    ;948
                  |L1.14436|
003864  7228              STRB     r0,[r5,#8]            ;711
003866  e136              B        |L1.15062|
003868  f5a441a0          SUB      r1,r4,#0x5000         ;954
00386c  3904              SUBS     r1,#4                 ;954
00386e  d002              BEQ      |L1.14454|
003870  79e8              LDRB     r0,[r5,#7]            ;957  ; bIgnoreIllegalOps
003872  b110              CBZ      r0,|L1.14458|
003874  e12f              B        |L1.15062|
                  |L1.14454|
003876  2002              MOVS     r0,#2                 ;954
003878  e000              B        |L1.14460|
                  |L1.14458|
00387a  2001              MOVS     r0,#1                 ;958
                  |L1.14460|
00387c  7168              STRB     r0,[r5,#5]            ;954
00387e  e12e              B        |L1.15070|
003880  79e9              LDRB     r1,[r5,#7]            ;964  ; bIgnoreIllegalOps
003882  bbe9              CBNZ     r1,|L1.14592|
003884  499e              LDR      r1,|L1.15104|
003886  0b02              LSRS     r2,r0,#12             ;965
003888  f8511022          LDR      r1,[r1,r2,LSL #2]     ;965
00388c  4788              BLX      r1                    ;965
00388e  4680              MOV      r8,r0                 ;965
003890  1c60              ADDS     r0,r4,#1              ;965
003892  b282              UXTH     r2,r0                 ;965
003894  f3c03103          UBFX     r1,r0,#12,#4          ;965
003898  4899              LDR      r0,|L1.15104|
00389a  f8501021          LDR      r1,[r0,r1,LSL #2]     ;965
00389e  4610              MOV      r0,r2                 ;965
0038a0  4788              BLX      r1                    ;965
0038a2  ea482000          ORR      r0,r8,r0,LSL #8       ;965
0038a6  1ca1              ADDS     r1,r4,#2              ;965
0038a8  4450              ADD      r0,r0,r10             ;965
0038aa  b28c              UXTH     r4,r1                 ;965
0038ac  fa1ff880          UXTH     r8,r0                 ;965
0038b0  1e60              SUBS     r0,r4,#1              ;966
0038b2  b281              UXTH     r1,r0                 ;966
0038b4  f3c03203          UBFX     r2,r0,#12,#4          ;966
0038b8  4891              LDR      r0,|L1.15104|
0038ba  f8502022          LDR      r2,[r0,r2,LSL #2]     ;966
0038be  4608              MOV      r0,r1                 ;966
0038c0  4790              BLX      r2                    ;966
0038c2  ea060109          AND      r1,r6,r9              ;966
0038c6  1c40              ADDS     r0,r0,#1              ;966
0038c8  4008              ANDS     r0,r0,r1              ;966
0038ca  4a8e              LDR      r2,|L1.15108|
0038cc  9000              STR      r0,[sp,#0]            ;967
0038ce  ea4f3118          LSR      r1,r8,#12             ;967
0038d2  4640              MOV      r0,r8                 ;967
0038d4  f8522021          LDR      r2,[r2,r1,LSL #2]     ;967
0038d8  9900              LDR      r1,[sp,#0]            ;968
0038da  e056              B        |L1.14730|
0038dc  79e9              LDRB     r1,[r5,#7]            ;972  ; bIgnoreIllegalOps
0038de  b979              CBNZ     r1,|L1.14592|
0038e0  4987              LDR      r1,|L1.15104|
0038e2  0b02              LSRS     r2,r0,#12             ;973
0038e4  f8511022          LDR      r1,[r1,r2,LSL #2]     ;973
0038e8  4788              BLX      r1                    ;973
0038ea  4680              MOV      r8,r0                 ;973
0038ec  1c60              ADDS     r0,r4,#1              ;973
0038ee  b281              UXTH     r1,r0                 ;973
0038f0  f3c03203          UBFX     r2,r0,#12,#4          ;973
0038f4  4882              LDR      r0,|L1.15104|
0038f6  f8502022          LDR      r2,[r0,r2,LSL #2]     ;973
0038fa  4608              MOV      r0,r1                 ;973
0038fc  4790              BLX      r2                    ;973
0038fe  e000              B        |L1.14594|
                  |L1.14592|
003900  e044              B        |L1.14732|
                  |L1.14594|
003902  ea482000          ORR      r0,r8,r0,LSL #8       ;973
003906  1ca1              ADDS     r1,r4,#2              ;973
003908  4448              ADD      r0,r0,r9              ;973
00390a  b28c              UXTH     r4,r1                 ;973
00390c  fa1ff880          UXTH     r8,r0                 ;973
003910  1e60              SUBS     r0,r4,#1              ;974
003912  b282              UXTH     r2,r0                 ;974
003914  f3c03103          UBFX     r1,r0,#12,#4          ;974
003918  4879              LDR      r0,|L1.15104|
00391a  f8501021          LDR      r1,[r0,r1,LSL #2]     ;974
00391e  4610              MOV      r0,r2                 ;974
003920  4788              BLX      r1                    ;974
003922  4a78              LDR      r2,|L1.15108|
003924  1c40              ADDS     r0,r0,#1              ;974
003926  ea4f3118          LSR      r1,r8,#12             ;975
00392a  ea000a0a          AND      r10,r0,r10            ;974
00392e  f8522021          LDR      r2,[r2,r1,LSL #2]     ;975
003932  4640              MOV      r0,r8                 ;975
003934  4651              MOV      r1,r10                ;975
003936  e028              B        |L1.14730|
003938  79e9              LDRB     r1,[r5,#7]            ;980  ; bIgnoreIllegalOps
00393a  bb39              CBNZ     r1,|L1.14732|
00393c  4970              LDR      r1,|L1.15104|
00393e  0b02              LSRS     r2,r0,#12             ;981
003940  f8511022          LDR      r1,[r1,r2,LSL #2]     ;981
003944  4788              BLX      r1                    ;981
003946  1c61              ADDS     r1,r4,#1              ;981
003948  4680              MOV      r8,r0                 ;981
00394a  b288              UXTH     r0,r1                 ;981
00394c  f3c13203          UBFX     r2,r1,#12,#4          ;981
003950  496b              LDR      r1,|L1.15104|
003952  f8511022          LDR      r1,[r1,r2,LSL #2]     ;981
003956  4788              BLX      r1                    ;981
003958  1ca1              ADDS     r1,r4,#2              ;981
00395a  ea482000          ORR      r0,r8,r0,LSL #8       ;981
00395e  b28c              UXTH     r4,r1                 ;981
003960  4450              ADD      r0,r0,r10             ;981
003962  1e61              SUBS     r1,r4,#1              ;982
003964  fa1ff880          UXTH     r8,r0                 ;981
003968  b288              UXTH     r0,r1                 ;982
00396a  f3c13203          UBFX     r2,r1,#12,#4          ;982
00396e  4964              LDR      r1,|L1.15104|
003970  f8511022          LDR      r1,[r1,r2,LSL #2]     ;982
003974  4788              BLX      r1                    ;982
003976  4a63              LDR      r2,|L1.15108|
003978  1c40              ADDS     r0,r0,#1              ;982
00397a  ea4f3118          LSR      r1,r8,#12             ;983
00397e  ea000909          AND      r9,r0,r9              ;982
003982  f8522021          LDR      r2,[r2,r1,LSL #2]     ;983
003986  4640              MOV      r0,r8                 ;983
003988  4649              MOV      r1,r9                 ;983
                  |L1.14730|
00398a  4790              BLX      r2                    ;781
                  |L1.14732|
00398c  e0a3              B        |L1.15062|
00398e  79e9              LDRB     r1,[r5,#7]            ;987  ; bIgnoreIllegalOps
003990  bb49              CBNZ     r1,|L1.14822|
003992  0b01              LSRS     r1,r0,#12             ;987
003994  f8581021          LDR      r1,[r8,r1,LSL #2]     ;987
003998  4788              BLX      r1                    ;987
00399a  495b              LDR      r1,|L1.15112|
00399c  b282              UXTH     r2,r0                 ;987
00399e  1c40              ADDS     r0,r0,#1              ;987
0039a0  5c8a              LDRB     r2,[r1,r2]            ;987
0039a2  fa51f080          UXTAB    r0,r1,r0              ;987
0039a6  7800              LDRB     r0,[r0,#0]            ;987
0039a8  1c61              ADDS     r1,r4,#1              ;987
0039aa  ea422000          ORR      r0,r2,r0,LSL #8       ;987
0039ae  4450              ADD      r0,r0,r10             ;987
0039b0  b280              UXTH     r0,r0                 ;987
0039b2  b28c              UXTH     r4,r1                 ;987
0039b4  0b01              LSRS     r1,r0,#12             ;987
0039b6  9002              STR      r0,[sp,#8]            ;987
0039b8  f8581021          LDR      r1,[r8,r1,LSL #2]     ;987
0039bc  4788              BLX      r1                    ;987
0039be  7228              STRB     r0,[r5,#8]            ;987
0039c0  1e60              SUBS     r0,r4,#1              ;987
0039c2  b281              UXTH     r1,r0                 ;987
0039c4  f3c03003          UBFX     r0,r0,#12,#4          ;987
0039c8  f8582020          LDR      r2,[r8,r0,LSL #2]     ;987
0039cc  4608              MOV      r0,r1                 ;987
0039ce  4790              BLX      r2                    ;987
0039d0  ea060109          AND      r1,r6,r9              ;987
0039d4  1c40              ADDS     r0,r0,#1              ;987
0039d6  4001              ANDS     r1,r1,r0              ;987
0039d8  7229              STRB     r1,[r5,#8]            ;987
0039da  9802              LDR      r0,[sp,#8]            ;987
0039dc  4b49              LDR      r3,|L1.15108|
0039de  0b02              LSRS     r2,r0,#12             ;987
0039e0  f8532022          LDR      r2,[r3,r2,LSL #2]     ;987
0039e4  4790              BLX      r2                    ;987
                  |L1.14822|
0039e6  e076              B        |L1.15062|
0039e8  79e9              LDRB     r1,[r5,#7]            ;988  ; bIgnoreIllegalOps
0039ea  bb81              CBNZ     r1,|L1.14926|
0039ec  4944              LDR      r1,|L1.15104|
0039ee  0b02              LSRS     r2,r0,#12             ;988
0039f0  f8511022          LDR      r1,[r1,r2,LSL #2]     ;988
0039f4  4788              BLX      r1                    ;988
0039f6  1c61              ADDS     r1,r4,#1              ;988
0039f8  4680              MOV      r8,r0                 ;988
0039fa  b288              UXTH     r0,r1                 ;988
0039fc  f3c13203          UBFX     r2,r1,#12,#4          ;988
003a00  493f              LDR      r1,|L1.15104|
003a02  f8511022          LDR      r1,[r1,r2,LSL #2]     ;988
003a06  4788              BLX      r1                    ;988
003a08  ea482000          ORR      r0,r8,r0,LSL #8       ;988
003a0c  4450              ADD      r0,r0,r10             ;988
003a0e  1ca1              ADDS     r1,r4,#2              ;988
003a10  fa1ff880          UXTH     r8,r0                 ;988
003a14  b28c              UXTH     r4,r1                 ;988
003a16  483a              LDR      r0,|L1.15104|
003a18  ea4f3118          LSR      r1,r8,#12             ;988
003a1c  f8501021          LDR      r1,[r0,r1,LSL #2]     ;988
003a20  4640              MOV      r0,r8                 ;988
003a22  4788              BLX      r1                    ;988
003a24  1e61              SUBS     r1,r4,#1              ;988
003a26  7228              STRB     r0,[r5,#8]            ;988
003a28  b288              UXTH     r0,r1                 ;988
003a2a  f3c13203          UBFX     r2,r1,#12,#4          ;988
003a2e  4934              LDR      r1,|L1.15104|
003a30  f8511022          LDR      r1,[r1,r2,LSL #2]     ;988
003a34  4788              BLX      r1                    ;988
003a36  ea060109          AND      r1,r6,r9              ;988
003a3a  1c40              ADDS     r0,r0,#1              ;988
003a3c  4b31              LDR      r3,|L1.15108|
003a3e  4001              ANDS     r1,r1,r0              ;988
003a40  ea4f3218          LSR      r2,r8,#12             ;988
003a44  7229              STRB     r1,[r5,#8]            ;988
003a46  f8532022          LDR      r2,[r3,r2,LSL #2]     ;988
003a4a  4640              MOV      r0,r8                 ;988
003a4c  4790              BLX      r2                    ;988
                  |L1.14926|
003a4e  e042              B        |L1.15062|
003a50  79e9              LDRB     r1,[r5,#7]            ;992  ; bIgnoreIllegalOps
003a52  bbe9              CBNZ     r1,|L1.15056|
003a54  0b01              LSRS     r1,r0,#12             ;993
003a56  f8581021          LDR      r1,[r8,r1,LSL #2]     ;993
003a5a  4788              BLX      r1                    ;993
003a5c  1c61              ADDS     r1,r4,#1              ;993
003a5e  b28c              UXTH     r4,r1                 ;993
003a60  4926              LDR      r1,|L1.15100|
003a62  7228              STRB     r0,[r5,#8]            ;993
003a64  4006              ANDS     r6,r6,r0              ;994
003a66  f0270083          BIC      r0,r7,#0x83           ;995
003a6a  5d89              LDRB     r1,[r1,r6]            ;995
003a6c  ea4010d6          ORR      r0,r0,r6,LSR #7       ;995
003a70  ea400701          ORR      r7,r0,r1              ;995
003a74  e02f              B        |L1.15062|
003a76  79e9              LDRB     r1,[r5,#7]            ;1000  ; bIgnoreIllegalOps
003a78  bb51              CBNZ     r1,|L1.15056|
003a7a  0b01              LSRS     r1,r0,#12             ;1001
003a7c  f8581021          LDR      r1,[r8,r1,LSL #2]     ;1001
003a80  4788              BLX      r1                    ;1001
003a82  4606              MOV      r6,r0                 ;1001
003a84  1c60              ADDS     r0,r4,#1              ;1001
003a86  b282              UXTH     r2,r0                 ;1001
003a88  f3c03003          UBFX     r0,r0,#12,#4          ;1001
003a8c  f8581020          LDR      r1,[r8,r0,LSL #2]     ;1001
003a90  4610              MOV      r0,r2                 ;1001
003a92  4788              BLX      r1                    ;1001
003a94  ea462100          ORR      r1,r6,r0,LSL #8       ;1001
003a98  eb01000a          ADD      r0,r1,r10             ;1001
003a9c  1ca2              ADDS     r2,r4,#2              ;1001
003a9e  b280              UXTH     r0,r0                 ;1001
003aa0  b294              UXTH     r4,r2                 ;1001
003aa2  f3c12107          UBFX     r1,r1,#8,#8           ;1001
003aa6  0a02              LSRS     r2,r0,#8              ;1001
003aa8  4291              CMP      r1,r2                 ;1001
003aaa  d002              BEQ      |L1.15026|
003aac  6929              LDR      r1,[r5,#0x10]         ;1001  ; nCPUCycle
003aae  1c49              ADDS     r1,r1,#1              ;1001
003ab0  6129              STR      r1,[r5,#0x10]         ;1001  ; nCPUCycle
                  |L1.15026|
003ab2  0b01              LSRS     r1,r0,#12             ;1001
003ab4  f8581021          LDR      r1,[r8,r1,LSL #2]     ;1001
003ab8  4788              BLX      r1                    ;1001
003aba  7228              STRB     r0,[r5,#8]            ;1001
003abc  9900              LDR      r1,[sp,#0]            ;1002
003abe  ea010600          AND      r6,r1,r0              ;1002
003ac2  490e              LDR      r1,|L1.15100|
003ac4  9600              STR      r6,[sp,#0]            ;1003
003ac6  46b1              MOV      r9,r6                 ;1002
003ac8  f0270082          BIC      r0,r7,#0x82           ;1003
003acc  5d89              LDRB     r1,[r1,r6]            ;1003
003ace  e000              B        |L1.15058|
                  |L1.15056|
003ad0  e001              B        |L1.15062|
                  |L1.15058|
003ad2  ea400701          ORR      r7,r0,r1              ;1003
                  |L1.15062|
003ad6  6928              LDR      r0,[r5,#0x10]         ;557  ; nCPUCycle
003ad8  4558              CMP      r0,r11                ;557
003ada  f4fcaaab          BCC      |L1.52|
                  |L1.15070|
003ade  816c              STRH     r4,[r5,#0xa]          ;1011
003ae0  702e              STRB     r6,[r5,#0]            ;1012
003ae2  f8859001          STRB     r9,[r5,#1]            ;1013
003ae6  f885a002          STRB     r10,[r5,#2]           ;1014
003aea  9800              LDR      r0,[sp,#0]            ;1015
003aec  7128              STRB     r0,[r5,#4]            ;1015
003aee  70ef              STRB     r7,[r5,#3]            ;1016
003af0  6929              LDR      r1,[r5,#0x10]         ;1020  ; nCPUCycle
003af2  9801              LDR      r0,[sp,#4]            ;1020
003af4  b003              ADD      sp,sp,#0xc
003af6  1a08              SUBS     r0,r1,r0              ;1020
003af8  e8bd8ff0          POP      {r4-r11,pc}
                          ENDP

                  |L1.15100|
                          DCD      ||.constdata||+0x100
                  |L1.15104|
                          DCD      ||.bss||+0x800
                  |L1.15108|
                          DCD      ||.bss||+0x840
                  |L1.15112|
                          DCD      ||.bss||

                          AREA ||.bss||, DATA, NOINIT, ALIGN=2

                  pRAM
                          %        2048
                  ReadMemory
                          %        64
                  WriteMemory
                          %        64

                          AREA ||area_number.4||, DATA, NOINIT, ALIGN=0

                          EXPORTAS ||area_number.4||, ||.bss||
                  pSRAM
                          %        8192

                          AREA ||area_number.5||, DATA, NOINIT, ALIGN=0

                          EXPORTAS ||area_number.5||, ||.bss||
                  pExRAM
                          %        4096

                          AREA ||area_number.6||, DATA, NOINIT, ALIGN=0

                          EXPORTAS ||area_number.6||, ||.bss||
                  pROM_Full
                          %        36864

                          AREA ||area_number.7||, DATA, NOINIT, ALIGN=2

                          EXPORTAS ||area_number.7||, ||.bss||
                  pROM
                          %        40

                          AREA ||area_number.8||, DATA, NOINIT, ALIGN=0

                          EXPORTAS ||area_number.8||, ||.bss||
                  nBankswitchInitValues
                          %        10

                          AREA ||.constdata||, DATA, READONLY, ALIGN=0

                  CPU_Cycles
000000  07060008          DCB      0x07,0x06,0x00,0x08
000004  03030505          DCB      0x03,0x03,0x05,0x05
000008  03020202          DCB      0x03,0x02,0x02,0x02
00000c  04040606          DCB      0x04,0x04,0x06,0x06
000010  02050008          DCB      0x02,0x05,0x00,0x08
000014  04040606          DCB      0x04,0x04,0x06,0x06
000018  02040207          DCB      0x02,0x04,0x02,0x07
00001c  04040707          DCB      0x04,0x04,0x07,0x07
000020  06060008          DCB      0x06,0x06,0x00,0x08
000024  03030505          DCB      0x03,0x03,0x05,0x05
000028  04020202          DCB      0x04,0x02,0x02,0x02
00002c  04040606          DCB      0x04,0x04,0x06,0x06
000030  02050008          DCB      0x02,0x05,0x00,0x08
000034  04040606          DCB      0x04,0x04,0x06,0x06
000038  02040207          DCB      0x02,0x04,0x02,0x07
00003c  04040707          DCB      0x04,0x04,0x07,0x07
000040  06060008          DCB      0x06,0x06,0x00,0x08
000044  03030505          DCB      0x03,0x03,0x05,0x05
000048  03020202          DCB      0x03,0x02,0x02,0x02
00004c  03040606          DCB      0x03,0x04,0x06,0x06
000050  02050008          DCB      0x02,0x05,0x00,0x08
000054  04040606          DCB      0x04,0x04,0x06,0x06
000058  02040207          DCB      0x02,0x04,0x02,0x07
00005c  04040707          DCB      0x04,0x04,0x07,0x07
000060  06060008          DCB      0x06,0x06,0x00,0x08
000064  03030505          DCB      0x03,0x03,0x05,0x05
000068  04020202          DCB      0x04,0x02,0x02,0x02
00006c  05040606          DCB      0x05,0x04,0x06,0x06
000070  02050008          DCB      0x02,0x05,0x00,0x08
000074  04040606          DCB      0x04,0x04,0x06,0x06
000078  02040207          DCB      0x02,0x04,0x02,0x07
00007c  04040707          DCB      0x04,0x04,0x07,0x07
000080  02060206          DCB      0x02,0x06,0x02,0x06
000084  03030303          DCB      0x03,0x03,0x03,0x03
000088  02020202          DCB      0x02,0x02,0x02,0x02
00008c  04040404          DCB      0x04,0x04,0x04,0x04
000090  02060006          DCB      0x02,0x06,0x00,0x06
000094  04040404          DCB      0x04,0x04,0x04,0x04
000098  02050205          DCB      0x02,0x05,0x02,0x05
00009c  05050505          DCB      0x05,0x05,0x05,0x05
0000a0  02060206          DCB      0x02,0x06,0x02,0x06
0000a4  03030303          DCB      0x03,0x03,0x03,0x03
0000a8  02020202          DCB      0x02,0x02,0x02,0x02
0000ac  04040404          DCB      0x04,0x04,0x04,0x04
0000b0  02050005          DCB      0x02,0x05,0x00,0x05
0000b4  04040404          DCB      0x04,0x04,0x04,0x04
0000b8  02040204          DCB      0x02,0x04,0x02,0x04
0000bc  04040404          DCB      0x04,0x04,0x04,0x04
0000c0  02060208          DCB      0x02,0x06,0x02,0x08
0000c4  03030505          DCB      0x03,0x03,0x05,0x05
0000c8  02020202          DCB      0x02,0x02,0x02,0x02
0000cc  04040606          DCB      0x04,0x04,0x06,0x06
0000d0  02050008          DCB      0x02,0x05,0x00,0x08
0000d4  04040606          DCB      0x04,0x04,0x06,0x06
0000d8  02040207          DCB      0x02,0x04,0x02,0x07
0000dc  04040707          DCB      0x04,0x04,0x07,0x07
0000e0  02060208          DCB      0x02,0x06,0x02,0x08
0000e4  03030505          DCB      0x03,0x03,0x05,0x05
0000e8  02020202          DCB      0x02,0x02,0x02,0x02
0000ec  04040606          DCB      0x04,0x04,0x06,0x06
0000f0  02050008          DCB      0x02,0x05,0x00,0x08
0000f4  04040606          DCB      0x04,0x04,0x06,0x06
0000f8  02040207          DCB      0x02,0x04,0x02,0x07
0000fc  04040707          DCB      0x04,0x04,0x07,0x07
                  NZTable
000100  02000000          DCB      0x02,0x00,0x00,0x00
000104  00000000          DCB      0x00,0x00,0x00,0x00
000108  00000000          DCB      0x00,0x00,0x00,0x00
00010c  00000000          DCB      0x00,0x00,0x00,0x00
000110  00000000          DCB      0x00,0x00,0x00,0x00
000114  00000000          DCB      0x00,0x00,0x00,0x00
000118  00000000          DCB      0x00,0x00,0x00,0x00
00011c  00000000          DCB      0x00,0x00,0x00,0x00
000120  00000000          DCB      0x00,0x00,0x00,0x00
000124  00000000          DCB      0x00,0x00,0x00,0x00
000128  00000000          DCB      0x00,0x00,0x00,0x00
00012c  00000000          DCB      0x00,0x00,0x00,0x00
000130  00000000          DCB      0x00,0x00,0x00,0x00
000134  00000000          DCB      0x00,0x00,0x00,0x00
000138  00000000          DCB      0x00,0x00,0x00,0x00
00013c  00000000          DCB      0x00,0x00,0x00,0x00
000140  00000000          DCB      0x00,0x00,0x00,0x00
000144  00000000          DCB      0x00,0x00,0x00,0x00
000148  00000000          DCB      0x00,0x00,0x00,0x00
00014c  00000000          DCB      0x00,0x00,0x00,0x00
000150  00000000          DCB      0x00,0x00,0x00,0x00
000154  00000000          DCB      0x00,0x00,0x00,0x00
000158  00000000          DCB      0x00,0x00,0x00,0x00
00015c  00000000          DCB      0x00,0x00,0x00,0x00
000160  00000000          DCB      0x00,0x00,0x00,0x00
000164  00000000          DCB      0x00,0x00,0x00,0x00
000168  00000000          DCB      0x00,0x00,0x00,0x00
00016c  00000000          DCB      0x00,0x00,0x00,0x00
000170  00000000          DCB      0x00,0x00,0x00,0x00
000174  00000000          DCB      0x00,0x00,0x00,0x00
000178  00000000          DCB      0x00,0x00,0x00,0x00
00017c  00000000          DCB      0x00,0x00,0x00,0x00
000180  80808080          DCB      0x80,0x80,0x80,0x80
000184  80808080          DCB      0x80,0x80,0x80,0x80
000188  80808080          DCB      0x80,0x80,0x80,0x80
00018c  80808080          DCB      0x80,0x80,0x80,0x80
000190  80808080          DCB      0x80,0x80,0x80,0x80
000194  80808080          DCB      0x80,0x80,0x80,0x80
000198  80808080          DCB      0x80,0x80,0x80,0x80
00019c  80808080          DCB      0x80,0x80,0x80,0x80
0001a0  80808080          DCB      0x80,0x80,0x80,0x80
0001a4  80808080          DCB      0x80,0x80,0x80,0x80
0001a8  80808080          DCB      0x80,0x80,0x80,0x80
0001ac  80808080          DCB      0x80,0x80,0x80,0x80
0001b0  80808080          DCB      0x80,0x80,0x80,0x80
0001b4  80808080          DCB      0x80,0x80,0x80,0x80
0001b8  80808080          DCB      0x80,0x80,0x80,0x80
0001bc  80808080          DCB      0x80,0x80,0x80,0x80
0001c0  80808080          DCB      0x80,0x80,0x80,0x80
0001c4  80808080          DCB      0x80,0x80,0x80,0x80
0001c8  80808080          DCB      0x80,0x80,0x80,0x80
0001cc  80808080          DCB      0x80,0x80,0x80,0x80
0001d0  80808080          DCB      0x80,0x80,0x80,0x80
0001d4  80808080          DCB      0x80,0x80,0x80,0x80
0001d8  80808080          DCB      0x80,0x80,0x80,0x80
0001dc  80808080          DCB      0x80,0x80,0x80,0x80
0001e0  80808080          DCB      0x80,0x80,0x80,0x80
0001e4  80808080          DCB      0x80,0x80,0x80,0x80
0001e8  80808080          DCB      0x80,0x80,0x80,0x80
0001ec  80808080          DCB      0x80,0x80,0x80,0x80
0001f0  80808080          DCB      0x80,0x80,0x80,0x80
0001f4  80808080          DCB      0x80,0x80,0x80,0x80
0001f8  80808080          DCB      0x80,0x80,0x80,0x80
0001fc  80808080          DCB      0x80,0x80,0x80,0x80

                          AREA ||.data||, DATA, ALIGN=2

                  regA
000000  00                DCB      0x00
                  regX
000001  00                DCB      0x00
                  regY
000002  00                DCB      0x00
                  regP
000003  00                DCB      0x00
                  regSP
000004  00                DCB      0x00
                  bCPUJammed
000005  00                DCB      0x00
                  bIgnoreBRK
000006  00                DCB      0x00
                  bIgnoreIllegalOps
000007  00                DCB      0x00
                  val
000008  00                DCB      0x00
                  ||op||
000009  00                DCB      0x00
                  regPC
00000a  0000              DCB      0x00,0x00
                  pStack
                          DCD      0x00000000
                  nCPUCycle
                          DCD      0x00000000

                          AREA ||area_number.12||, DATA, ALIGN=0

                          EXPORTAS ||area_number.12||, ||.data||
                  bPALMode
000000  00                DCB      0x00

                          AREA ||area_number.13||, DATA, ALIGN=2

                          EXPORTAS ||area_number.13||, ||.data||
                  nAPUCycle
                          DCD      0x00000000

                          AREA ||area_number.14||, DATA, ALIGN=1

                          EXPORTAS ||area_number.14||, ||.data||
                  front
000000  0000              DCB      0x00,0x00

                          AREA ||area_number.15||, DATA, ALIGN=1

                          EXPORTAS ||area_number.15||, ||.data||
                  final
000000  0000              DCB      0x00,0x00
